
RfidReader.elf:     file format elf32-avr

Sections:
Idx Name          Size      VMA       LMA       File off  Algn
  0 .text         00002888  00000000  00000000  00000094  2**1
                  CONTENTS, ALLOC, LOAD, READONLY, CODE
  1 .data         000000f4  00802000  00002888  0000291c  2**0
                  CONTENTS, ALLOC, LOAD, DATA
  2 .bss          00000507  008020f4  008020f4  00002a10  2**0
                  ALLOC
  3 .comment      00000060  00000000  00000000  00002a10  2**0
                  CONTENTS, READONLY
  4 .note.gnu.avr.deviceinfo 00000040  00000000  00000000  00002a70  2**2
                  CONTENTS, READONLY
  5 .debug_aranges 00000490  00000000  00000000  00002ab0  2**0
                  CONTENTS, READONLY, DEBUGGING
  6 .debug_info   0000aa83  00000000  00000000  00002f40  2**0
                  CONTENTS, READONLY, DEBUGGING
  7 .debug_abbrev 00003ac7  00000000  00000000  0000d9c3  2**0
                  CONTENTS, READONLY, DEBUGGING
  8 .debug_line   000032b3  00000000  00000000  0001148a  2**0
                  CONTENTS, READONLY, DEBUGGING
  9 .debug_frame  00000d90  00000000  00000000  00014740  2**2
                  CONTENTS, READONLY, DEBUGGING
 10 .debug_str    0000441d  00000000  00000000  000154d0  2**0
                  CONTENTS, READONLY, DEBUGGING
 11 .debug_loc    00003983  00000000  00000000  000198ed  2**0
                  CONTENTS, READONLY, DEBUGGING
 12 .debug_ranges 00000570  00000000  00000000  0001d270  2**0
                  CONTENTS, READONLY, DEBUGGING

Disassembly of section .text:

00000000 <__vectors>:
       0:	0c 94 fe 00 	jmp	0x1fc	; 0x1fc <__ctors_end>
       4:	0c 94 1b 01 	jmp	0x236	; 0x236 <__bad_interrupt>
       8:	0c 94 22 05 	jmp	0xa44	; 0xa44 <__vector_2>
       c:	0c 94 1b 01 	jmp	0x236	; 0x236 <__bad_interrupt>
      10:	0c 94 1b 01 	jmp	0x236	; 0x236 <__bad_interrupt>
      14:	0c 94 1b 01 	jmp	0x236	; 0x236 <__bad_interrupt>
      18:	0c 94 1b 01 	jmp	0x236	; 0x236 <__bad_interrupt>
      1c:	0c 94 1b 01 	jmp	0x236	; 0x236 <__bad_interrupt>
      20:	0c 94 1b 01 	jmp	0x236	; 0x236 <__bad_interrupt>
      24:	0c 94 1b 01 	jmp	0x236	; 0x236 <__bad_interrupt>
      28:	0c 94 1b 01 	jmp	0x236	; 0x236 <__bad_interrupt>
      2c:	0c 94 1b 01 	jmp	0x236	; 0x236 <__bad_interrupt>
      30:	0c 94 1b 01 	jmp	0x236	; 0x236 <__bad_interrupt>
      34:	0c 94 1b 01 	jmp	0x236	; 0x236 <__bad_interrupt>
      38:	0c 94 2a 05 	jmp	0xa54	; 0xa54 <__vector_14>
      3c:	0c 94 1b 01 	jmp	0x236	; 0x236 <__bad_interrupt>
      40:	0c 94 2e 05 	jmp	0xa5c	; 0xa5c <__vector_16>
      44:	0c 94 1b 01 	jmp	0x236	; 0x236 <__bad_interrupt>
      48:	0c 94 1b 01 	jmp	0x236	; 0x236 <__bad_interrupt>
      4c:	0c 94 1b 01 	jmp	0x236	; 0x236 <__bad_interrupt>
      50:	0c 94 63 0b 	jmp	0x16c6	; 0x16c6 <__vector_20>
      54:	0c 94 1b 01 	jmp	0x236	; 0x236 <__bad_interrupt>
      58:	0c 94 ce 0d 	jmp	0x1b9c	; 0x1b9c <__vector_22>
      5c:	0c 94 1b 01 	jmp	0x236	; 0x236 <__bad_interrupt>
      60:	0c 94 1b 01 	jmp	0x236	; 0x236 <__bad_interrupt>
      64:	0c 94 1b 01 	jmp	0x236	; 0x236 <__bad_interrupt>
      68:	0c 94 1b 01 	jmp	0x236	; 0x236 <__bad_interrupt>
      6c:	0c 94 1b 01 	jmp	0x236	; 0x236 <__bad_interrupt>
      70:	0c 94 1b 01 	jmp	0x236	; 0x236 <__bad_interrupt>
      74:	0c 94 1b 01 	jmp	0x236	; 0x236 <__bad_interrupt>
      78:	0c 94 1b 01 	jmp	0x236	; 0x236 <__bad_interrupt>
      7c:	0c 94 1b 01 	jmp	0x236	; 0x236 <__bad_interrupt>
      80:	0c 94 1b 01 	jmp	0x236	; 0x236 <__bad_interrupt>
      84:	0c 94 1b 01 	jmp	0x236	; 0x236 <__bad_interrupt>
      88:	0c 94 1b 01 	jmp	0x236	; 0x236 <__bad_interrupt>
      8c:	0c 94 1b 01 	jmp	0x236	; 0x236 <__bad_interrupt>
      90:	0c 94 1b 01 	jmp	0x236	; 0x236 <__bad_interrupt>
      94:	0c 94 1b 01 	jmp	0x236	; 0x236 <__bad_interrupt>
      98:	0c 94 1b 01 	jmp	0x236	; 0x236 <__bad_interrupt>
      9c:	0c 94 1b 01 	jmp	0x236	; 0x236 <__bad_interrupt>
      a0:	0c 94 1b 01 	jmp	0x236	; 0x236 <__bad_interrupt>
      a4:	0c 94 1b 01 	jmp	0x236	; 0x236 <__bad_interrupt>
      a8:	0c 94 1b 01 	jmp	0x236	; 0x236 <__bad_interrupt>
      ac:	0c 94 44 10 	jmp	0x2088	; 0x2088 <__vector_43>
      b0:	0c 94 1b 01 	jmp	0x236	; 0x236 <__bad_interrupt>
      b4:	0c 94 1b 01 	jmp	0x236	; 0x236 <__bad_interrupt>
      b8:	0c 94 1b 01 	jmp	0x236	; 0x236 <__bad_interrupt>
      bc:	0c 94 1b 01 	jmp	0x236	; 0x236 <__bad_interrupt>
      c0:	0c 94 1b 01 	jmp	0x236	; 0x236 <__bad_interrupt>
      c4:	0c 94 1b 01 	jmp	0x236	; 0x236 <__bad_interrupt>
      c8:	0c 94 1b 01 	jmp	0x236	; 0x236 <__bad_interrupt>
      cc:	0c 94 1b 01 	jmp	0x236	; 0x236 <__bad_interrupt>
      d0:	0c 94 1b 01 	jmp	0x236	; 0x236 <__bad_interrupt>
      d4:	0c 94 1b 01 	jmp	0x236	; 0x236 <__bad_interrupt>
      d8:	0c 94 1b 01 	jmp	0x236	; 0x236 <__bad_interrupt>
      dc:	0c 94 1b 01 	jmp	0x236	; 0x236 <__bad_interrupt>
      e0:	0c 94 1b 01 	jmp	0x236	; 0x236 <__bad_interrupt>
      e4:	0c 94 1b 01 	jmp	0x236	; 0x236 <__bad_interrupt>
      e8:	0c 94 10 11 	jmp	0x2220	; 0x2220 <__vector_58>
      ec:	0c 94 f7 0f 	jmp	0x1fee	; 0x1fee <__vector_59>
      f0:	0c 94 1b 01 	jmp	0x236	; 0x236 <__bad_interrupt>
      f4:	0c 94 1b 01 	jmp	0x236	; 0x236 <__bad_interrupt>
      f8:	0c 94 1b 01 	jmp	0x236	; 0x236 <__bad_interrupt>
      fc:	0c 94 1b 01 	jmp	0x236	; 0x236 <__bad_interrupt>
     100:	0c 94 66 05 	jmp	0xacc	; 0xacc <__vector_64>
     104:	0c 94 1b 01 	jmp	0x236	; 0x236 <__bad_interrupt>
     108:	0c 94 21 05 	jmp	0xa42	; 0xa42 <__vector_66>
     10c:	0c 94 1b 01 	jmp	0x236	; 0x236 <__bad_interrupt>
     110:	0c 94 1b 01 	jmp	0x236	; 0x236 <__bad_interrupt>
     114:	0c 94 1b 01 	jmp	0x236	; 0x236 <__bad_interrupt>
     118:	0c 94 1b 01 	jmp	0x236	; 0x236 <__bad_interrupt>
     11c:	0c 94 1b 01 	jmp	0x236	; 0x236 <__bad_interrupt>
     120:	0c 94 1b 01 	jmp	0x236	; 0x236 <__bad_interrupt>
     124:	0c 94 1b 01 	jmp	0x236	; 0x236 <__bad_interrupt>
     128:	0c 94 1b 01 	jmp	0x236	; 0x236 <__bad_interrupt>
     12c:	0c 94 1b 01 	jmp	0x236	; 0x236 <__bad_interrupt>
     130:	0c 94 1b 01 	jmp	0x236	; 0x236 <__bad_interrupt>
     134:	0c 94 07 12 	jmp	0x240e	; 0x240e <__vector_77>
     138:	0c 94 1b 01 	jmp	0x236	; 0x236 <__bad_interrupt>
     13c:	0c 94 1b 01 	jmp	0x236	; 0x236 <__bad_interrupt>
     140:	0c 94 1b 01 	jmp	0x236	; 0x236 <__bad_interrupt>
     144:	0c 94 1b 01 	jmp	0x236	; 0x236 <__bad_interrupt>
     148:	0c 94 1b 01 	jmp	0x236	; 0x236 <__bad_interrupt>
     14c:	0c 94 23 05 	jmp	0xa46	; 0xa46 <__vector_83>
     150:	0c 94 1b 01 	jmp	0x236	; 0x236 <__bad_interrupt>
     154:	0c 94 1b 01 	jmp	0x236	; 0x236 <__bad_interrupt>
     158:	0c 94 1b 01 	jmp	0x236	; 0x236 <__bad_interrupt>
     15c:	0c 94 1b 01 	jmp	0x236	; 0x236 <__bad_interrupt>
     160:	0c 94 7c 05 	jmp	0xaf8	; 0xaf8 <__vector_88>
     164:	0c 94 45 05 	jmp	0xa8a	; 0xa8a <__vector_89>
     168:	0c 94 1b 01 	jmp	0x236	; 0x236 <__bad_interrupt>
     16c:	0c 94 1b 01 	jmp	0x236	; 0x236 <__bad_interrupt>
     170:	0c 94 1b 01 	jmp	0x236	; 0x236 <__bad_interrupt>
     174:	0c 94 1b 01 	jmp	0x236	; 0x236 <__bad_interrupt>
     178:	0c 94 1b 01 	jmp	0x236	; 0x236 <__bad_interrupt>
     17c:	0c 94 1b 01 	jmp	0x236	; 0x236 <__bad_interrupt>
     180:	0c 94 1b 01 	jmp	0x236	; 0x236 <__bad_interrupt>
     184:	0c 94 1b 01 	jmp	0x236	; 0x236 <__bad_interrupt>
     188:	0c 94 1b 01 	jmp	0x236	; 0x236 <__bad_interrupt>
     18c:	0c 94 1b 01 	jmp	0x236	; 0x236 <__bad_interrupt>
     190:	0c 94 1b 01 	jmp	0x236	; 0x236 <__bad_interrupt>
     194:	0c 94 1b 01 	jmp	0x236	; 0x236 <__bad_interrupt>
     198:	0c 94 1b 01 	jmp	0x236	; 0x236 <__bad_interrupt>
     19c:	0c 94 1b 01 	jmp	0x236	; 0x236 <__bad_interrupt>
     1a0:	0c 94 1b 01 	jmp	0x236	; 0x236 <__bad_interrupt>
     1a4:	0c 94 1b 01 	jmp	0x236	; 0x236 <__bad_interrupt>
     1a8:	0c 94 1b 01 	jmp	0x236	; 0x236 <__bad_interrupt>
     1ac:	0c 94 1b 01 	jmp	0x236	; 0x236 <__bad_interrupt>
     1b0:	0c 94 1b 01 	jmp	0x236	; 0x236 <__bad_interrupt>
     1b4:	0c 94 1b 01 	jmp	0x236	; 0x236 <__bad_interrupt>
     1b8:	0c 94 1b 01 	jmp	0x236	; 0x236 <__bad_interrupt>
     1bc:	0c 94 1b 01 	jmp	0x236	; 0x236 <__bad_interrupt>
     1c0:	0c 94 1b 01 	jmp	0x236	; 0x236 <__bad_interrupt>
     1c4:	0c 94 1b 01 	jmp	0x236	; 0x236 <__bad_interrupt>
     1c8:	0c 94 1b 01 	jmp	0x236	; 0x236 <__bad_interrupt>
     1cc:	0c 94 1b 01 	jmp	0x236	; 0x236 <__bad_interrupt>
     1d0:	0c 94 1b 01 	jmp	0x236	; 0x236 <__bad_interrupt>
     1d4:	0c 94 1b 01 	jmp	0x236	; 0x236 <__bad_interrupt>
     1d8:	0c 94 1b 01 	jmp	0x236	; 0x236 <__bad_interrupt>
     1dc:	0c 94 1b 01 	jmp	0x236	; 0x236 <__bad_interrupt>
     1e0:	0c 94 1b 01 	jmp	0x236	; 0x236 <__bad_interrupt>
     1e4:	0c 94 1b 01 	jmp	0x236	; 0x236 <__bad_interrupt>
     1e8:	0c 94 1b 01 	jmp	0x236	; 0x236 <__bad_interrupt>
     1ec:	0c 94 1b 01 	jmp	0x236	; 0x236 <__bad_interrupt>
     1f0:	0c 94 1b 01 	jmp	0x236	; 0x236 <__bad_interrupt>
     1f4:	0c 94 1b 01 	jmp	0x236	; 0x236 <__bad_interrupt>
     1f8:	0c 94 1b 01 	jmp	0x236	; 0x236 <__bad_interrupt>

000001fc <__ctors_end>:
     1fc:	11 24       	eor	r1, r1
     1fe:	1f be       	out	0x3f, r1	; 63
     200:	cf ef       	ldi	r28, 0xFF	; 255
     202:	cd bf       	out	0x3d, r28	; 61
     204:	d7 e2       	ldi	r29, 0x27	; 39
     206:	de bf       	out	0x3e, r29	; 62

00000208 <__do_copy_data>:
     208:	10 e2       	ldi	r17, 0x20	; 32
     20a:	a0 e0       	ldi	r26, 0x00	; 0
     20c:	b0 e2       	ldi	r27, 0x20	; 32
     20e:	e8 e8       	ldi	r30, 0x88	; 136
     210:	f8 e2       	ldi	r31, 0x28	; 40
     212:	02 c0       	rjmp	.+4      	; 0x218 <__do_copy_data+0x10>
     214:	05 90       	lpm	r0, Z+
     216:	0d 92       	st	X+, r0
     218:	a4 3f       	cpi	r26, 0xF4	; 244
     21a:	b1 07       	cpc	r27, r17
     21c:	d9 f7       	brne	.-10     	; 0x214 <__do_copy_data+0xc>

0000021e <__do_clear_bss>:
     21e:	25 e2       	ldi	r18, 0x25	; 37
     220:	a4 ef       	ldi	r26, 0xF4	; 244
     222:	b0 e2       	ldi	r27, 0x20	; 32
     224:	01 c0       	rjmp	.+2      	; 0x228 <.do_clear_bss_start>

00000226 <.do_clear_bss_loop>:
     226:	1d 92       	st	X+, r1

00000228 <.do_clear_bss_start>:
     228:	ab 3f       	cpi	r26, 0xFB	; 251
     22a:	b2 07       	cpc	r27, r18
     22c:	e1 f7       	brne	.-8      	; 0x226 <.do_clear_bss_loop>
     22e:	0e 94 3c 05 	call	0xa78	; 0xa78 <main>
     232:	0c 94 42 14 	jmp	0x2884	; 0x2884 <_exit>

00000236 <__bad_interrupt>:
     236:	0c 94 00 00 	jmp	0	; 0x0 <__vectors>

0000023a <hwbp_app_initialize>:
/* Initialize app                                                       */
/************************************************************************/
static const uint8_t default_device_name[] = "RfidReader";

void hwbp_app_initialize(void)
{
     23a:	8f 92       	push	r8
     23c:	af 92       	push	r10
     23e:	bf 92       	push	r11
     240:	cf 92       	push	r12
     242:	df 92       	push	r13
     244:	ef 92       	push	r14
     246:	0f 93       	push	r16
    uint8_t fwH = 1;
    uint8_t fwL = 0;
    uint8_t ass = 0;
    
   	/* Start core */
    core_func_start_core(
     248:	8a e9       	ldi	r24, 0x9A	; 154
     24a:	90 e2       	ldi	r25, 0x20	; 32
     24c:	9f 93       	push	r25
     24e:	8f 93       	push	r24
     250:	81 e1       	ldi	r24, 0x11	; 17
     252:	88 2e       	mov	r8, r24
     254:	9a e3       	ldi	r25, 0x3A	; 58
     256:	a9 2e       	mov	r10, r25
     258:	b1 2c       	mov	r11, r1
     25a:	27 e7       	ldi	r18, 0x77	; 119
     25c:	c2 2e       	mov	r12, r18
     25e:	21 e2       	ldi	r18, 0x21	; 33
     260:	d2 2e       	mov	r13, r18
     262:	e1 2c       	mov	r14, r1
     264:	00 e0       	ldi	r16, 0x00	; 0
     266:	21 e0       	ldi	r18, 0x01	; 1
     268:	40 e0       	ldi	r20, 0x00	; 0
     26a:	61 e0       	ldi	r22, 0x01	; 1
     26c:	8e e2       	ldi	r24, 0x2E	; 46
     26e:	98 e0       	ldi	r25, 0x08	; 8
     270:	0e 94 cb 09 	call	0x1396	; 0x1396 <core_func_start_core>
        (uint8_t*)(&app_regs),
        APP_NBYTES_OF_REG_BANK,
        APP_REGS_ADD_MAX - APP_REGS_ADD_MIN + 1,
        default_device_name
    );
}
     274:	0f 90       	pop	r0
     276:	0f 90       	pop	r0
     278:	0f 91       	pop	r16
     27a:	ef 90       	pop	r14
     27c:	df 90       	pop	r13
     27e:	cf 90       	pop	r12
     280:	bf 90       	pop	r11
     282:	af 90       	pop	r10
     284:	8f 90       	pop	r8
     286:	08 95       	ret

00000288 <core_callback_catastrophic_error_detected>:
     288:	08 95       	ret

0000028a <core_callback_1st_config_hw_after_boot>:
/************************************************************************/
void core_callback_1st_config_hw_after_boot(void)
{
	/* Initialize IOs */
	/* Don't delete this function!!! */
	init_ios();
     28a:	0c 94 e3 04 	jmp	0x9c6	; 0x9c6 <init_ios>

0000028e <core_callback_reset_registers>:
}

void core_callback_reset_registers(void)
{
	/* Initialize registers */
	app_regs.REG_NOTIFICATIONS = B_BUZZER | B_TOP_LED | B_BOTTOM_LED;
     28e:	e7 e7       	ldi	r30, 0x77	; 119
     290:	f1 e2       	ldi	r31, 0x21	; 33
     292:	81 e0       	ldi	r24, 0x01	; 1
     294:	82 87       	std	Z+10, r24	; 0x0a
	app_regs.REG_TIME_ON_BUZZER = 1000;			// 1 second
     296:	88 ee       	ldi	r24, 0xE8	; 232
     298:	93 e0       	ldi	r25, 0x03	; 3
     29a:	84 87       	std	Z+12, r24	; 0x0c
     29c:	95 87       	std	Z+13, r25	; 0x0d
	app_regs.REG_TIME_ON_LED_TOP = 1000;		// 1 second
     29e:	86 87       	std	Z+14, r24	; 0x0e
     2a0:	97 87       	std	Z+15, r25	; 0x0f
	app_regs.REG_TIME_ON_LED_BOTTOM = 1000;		// 1 second
     2a2:	80 8b       	std	Z+16, r24	; 0x10
     2a4:	91 8b       	std	Z+17, r25	; 0x11
	app_regs.REG_BUZZER_FREQUENCY = 1000;		// 1 KHz
     2a6:	82 8b       	std	Z+18, r24	; 0x12
     2a8:	93 8b       	std	Z+19, r25	; 0x13
	app_regs.REG_LED_TOP_BLINK_PERIOD = 100;	// 100 ms
     2aa:	84 e6       	ldi	r24, 0x64	; 100
     2ac:	90 e0       	ldi	r25, 0x00	; 0
     2ae:	84 8b       	std	Z+20, r24	; 0x14
     2b0:	95 8b       	std	Z+21, r25	; 0x15
	app_regs.REG_LED_BOTTOM_BLINK_PERIOD = 100;	// 100 ms
     2b2:	86 8b       	std	Z+22, r24	; 0x16
     2b4:	97 8b       	std	Z+23, r25	; 0x17
	app_regs.REG_TAG_MATCH0 = 0;
     2b6:	12 8e       	std	Z+26, r1	; 0x1a
     2b8:	13 8e       	std	Z+27, r1	; 0x1b
     2ba:	14 8e       	std	Z+28, r1	; 0x1c
     2bc:	15 8e       	std	Z+29, r1	; 0x1d
     2be:	16 8e       	std	Z+30, r1	; 0x1e
     2c0:	17 8e       	std	Z+31, r1	; 0x1f
     2c2:	10 a2       	std	Z+32, r1	; 0x20
     2c4:	11 a2       	std	Z+33, r1	; 0x21
	app_regs.REG_TAG_MATCH1 = 0;
     2c6:	12 a2       	std	Z+34, r1	; 0x22
     2c8:	13 a2       	std	Z+35, r1	; 0x23
     2ca:	14 a2       	std	Z+36, r1	; 0x24
     2cc:	15 a2       	std	Z+37, r1	; 0x25
     2ce:	16 a2       	std	Z+38, r1	; 0x26
     2d0:	17 a2       	std	Z+39, r1	; 0x27
     2d2:	10 a6       	std	Z+40, r1	; 0x28
     2d4:	11 a6       	std	Z+41, r1	; 0x29
	app_regs.REG_TAG_MATCH2 = 0;
     2d6:	12 a6       	std	Z+42, r1	; 0x2a
     2d8:	13 a6       	std	Z+43, r1	; 0x2b
     2da:	14 a6       	std	Z+44, r1	; 0x2c
     2dc:	15 a6       	std	Z+45, r1	; 0x2d
     2de:	16 a6       	std	Z+46, r1	; 0x2e
     2e0:	17 a6       	std	Z+47, r1	; 0x2f
     2e2:	10 aa       	std	Z+48, r1	; 0x30
     2e4:	11 aa       	std	Z+49, r1	; 0x31
	app_regs.REG_TAG_MATCH3 = 0;
     2e6:	12 aa       	std	Z+50, r1	; 0x32
     2e8:	13 aa       	std	Z+51, r1	; 0x33
     2ea:	14 aa       	std	Z+52, r1	; 0x34
     2ec:	15 aa       	std	Z+53, r1	; 0x35
     2ee:	16 aa       	std	Z+54, r1	; 0x36
     2f0:	17 aa       	std	Z+55, r1	; 0x37
     2f2:	10 ae       	std	Z+56, r1	; 0x38
     2f4:	11 ae       	std	Z+57, r1	; 0x39
     2f6:	08 95       	ret

000002f8 <core_callback_registers_were_reinitialized>:
}

void core_callback_registers_were_reinitialized(void)
{
	/* Update registers if needed */
	app_write_REG_BUZZER_FREQUENCY(&app_regs.REG_BUZZER_FREQUENCY);
     2f8:	89 e8       	ldi	r24, 0x89	; 137
     2fa:	91 e2       	ldi	r25, 0x21	; 33
     2fc:	0c 94 9d 04 	jmp	0x93a	; 0x93a <app_write_REG_BUZZER_FREQUENCY>

00000300 <core_callback_visualen_to_on>:
     300:	08 95       	ret

00000302 <core_callback_visualen_to_off>:
     302:	08 95       	ret

00000304 <notify>:

extern uint8_t buzzer_prescaler;
extern uint16_t buzzer_target_count;

void notify(uint8_t notify_mask)
{
     304:	ef 92       	push	r14
     306:	0f 93       	push	r16
     308:	cf 93       	push	r28
     30a:	df 93       	push	r29
	if ((notify_mask & B_BUZZER) && (app_regs.REG_TIME_ON_BUZZER > 1))
     30c:	80 ff       	sbrs	r24, 0
     30e:	63 c0       	rjmp	.+198    	; 0x3d6 <notify+0xd2>
     310:	80 91 83 21 	lds	r24, 0x2183	; 0x802183 <app_regs+0xc>
     314:	90 91 84 21 	lds	r25, 0x2184	; 0x802184 <app_regs+0xd>
     318:	02 97       	sbiw	r24, 0x02	; 2
     31a:	20 f1       	brcs	.+72     	; 0x364 <notify+0x60>
	{
		// Replace with timer TCD0
		timer_type0_pwm(&TCC0, buzzer_prescaler, buzzer_target_count, buzzer_target_count>>1, INT_LEVEL_LOW, INT_LEVEL_LOW);
     31c:	40 91 74 21 	lds	r20, 0x2174	; 0x802174 <buzzer_target_count>
     320:	50 91 75 21 	lds	r21, 0x2175	; 0x802175 <buzzer_target_count+0x1>
     324:	9a 01       	movw	r18, r20
     326:	36 95       	lsr	r19
     328:	27 95       	ror	r18
     32a:	ee 24       	eor	r14, r14
     32c:	e3 94       	inc	r14
     32e:	01 e0       	ldi	r16, 0x01	; 1
     330:	60 91 76 21 	lds	r22, 0x2176	; 0x802176 <buzzer_prescaler>
     334:	80 e0       	ldi	r24, 0x00	; 0
     336:	98 e0       	ldi	r25, 0x08	; 8
     338:	0e 94 e0 06 	call	0xdc0	; 0xdc0 <timer_type0_pwm>
		buzzer_time_on = app_regs.REG_TIME_ON_BUZZER;
     33c:	80 91 83 21 	lds	r24, 0x2183	; 0x802183 <app_regs+0xc>
     340:	90 91 84 21 	lds	r25, 0x2184	; 0x802184 <app_regs+0xd>
     344:	80 93 fc 20 	sts	0x20FC, r24	; 0x8020fc <buzzer_time_on>
     348:	90 93 fd 20 	sts	0x20FD, r25	; 0x8020fd <buzzer_time_on+0x1>
     34c:	10 92 fe 20 	sts	0x20FE, r1	; 0x8020fe <buzzer_time_on+0x2>
     350:	10 92 ff 20 	sts	0x20FF, r1	; 0x8020ff <buzzer_time_on+0x3>
     354:	10 92 00 21 	sts	0x2100, r1	; 0x802100 <buzzer_time_on+0x4>
     358:	10 92 01 21 	sts	0x2101, r1	; 0x802101 <buzzer_time_on+0x5>
     35c:	10 92 02 21 	sts	0x2102, r1	; 0x802102 <buzzer_time_on+0x6>
     360:	10 92 03 21 	sts	0x2103, r1	; 0x802103 <buzzer_time_on+0x7>
	}
	
	if (core_bool_is_visual_enabled())
     364:	0e 94 88 0f 	call	0x1f10	; 0x1f10 <core_bool_is_visual_enabled>
     368:	88 23       	and	r24, r24
     36a:	81 f1       	breq	.+96     	; 0x3cc <notify+0xc8>
	{
		if ((notify_mask & B_TOP_LED) && (app_regs.REG_TIME_ON_LED_TOP > 1))
     36c:	80 91 85 21 	lds	r24, 0x2185	; 0x802185 <app_regs+0xe>
     370:	90 91 86 21 	lds	r25, 0x2186	; 0x802186 <app_regs+0xf>
     374:	82 30       	cpi	r24, 0x02	; 2
     376:	91 05       	cpc	r25, r1
     378:	88 f0       	brcs	.+34     	; 0x39c <notify+0x98>
		{
			set_LED_DETECT_TOP;
     37a:	20 e1       	ldi	r18, 0x10	; 16
     37c:	20 93 65 06 	sts	0x0665, r18	; 0x800665 <__TEXT_REGION_LENGTH__+0x700665>
			top_led_time_on = app_regs.REG_TIME_ON_LED_TOP;
     380:	80 93 fa 20 	sts	0x20FA, r24	; 0x8020fa <top_led_time_on>
     384:	90 93 fb 20 	sts	0x20FB, r25	; 0x8020fb <top_led_time_on+0x1>
			top_led_period = app_regs.REG_LED_TOP_BLINK_PERIOD >> 1;		// Divide by 2
     388:	80 91 8b 21 	lds	r24, 0x218B	; 0x80218b <app_regs+0x14>
     38c:	90 91 8c 21 	lds	r25, 0x218C	; 0x80218c <app_regs+0x15>
     390:	96 95       	lsr	r25
     392:	87 95       	ror	r24
     394:	80 93 f6 20 	sts	0x20F6, r24	; 0x8020f6 <top_led_period>
     398:	90 93 f7 20 	sts	0x20F7, r25	; 0x8020f7 <top_led_period+0x1>
		}
	
		if ((notify_mask & B_BOTTOM_LED) && (app_regs.REG_TIME_ON_LED_BOTTOM > 1))
     39c:	80 91 87 21 	lds	r24, 0x2187	; 0x802187 <app_regs+0x10>
     3a0:	90 91 88 21 	lds	r25, 0x2188	; 0x802188 <app_regs+0x11>
     3a4:	82 30       	cpi	r24, 0x02	; 2
     3a6:	91 05       	cpc	r25, r1
     3a8:	88 f0       	brcs	.+34     	; 0x3cc <notify+0xc8>
		{
			set_LED_DETECT_BOTTOM;
     3aa:	24 e0       	ldi	r18, 0x04	; 4
     3ac:	20 93 45 06 	sts	0x0645, r18	; 0x800645 <__TEXT_REGION_LENGTH__+0x700645>
			bottom_led_time_on = app_regs.REG_TIME_ON_LED_BOTTOM;
     3b0:	80 93 f8 20 	sts	0x20F8, r24	; 0x8020f8 <bottom_led_time_on>
     3b4:	90 93 f9 20 	sts	0x20F9, r25	; 0x8020f9 <bottom_led_time_on+0x1>
			bottom_led_period = app_regs.REG_LED_BOTTOM_BLINK_PERIOD >> 1;	// Divide by 2
     3b8:	80 91 8d 21 	lds	r24, 0x218D	; 0x80218d <app_regs+0x16>
     3bc:	90 91 8e 21 	lds	r25, 0x218E	; 0x80218e <app_regs+0x17>
     3c0:	96 95       	lsr	r25
     3c2:	87 95       	ror	r24
     3c4:	80 93 f4 20 	sts	0x20F4, r24	; 0x8020f4 <__data_end>
     3c8:	90 93 f5 20 	sts	0x20F5, r25	; 0x8020f5 <__data_end+0x1>
		}
	}
}
     3cc:	df 91       	pop	r29
     3ce:	cf 91       	pop	r28
     3d0:	0f 91       	pop	r16
     3d2:	ef 90       	pop	r14
     3d4:	08 95       	ret
     3d6:	df 91       	pop	r29
     3d8:	cf 91       	pop	r28
     3da:	0f 91       	pop	r16
     3dc:	ef 90       	pop	r14
		// Replace with timer TCD0
		timer_type0_pwm(&TCC0, buzzer_prescaler, buzzer_target_count, buzzer_target_count>>1, INT_LEVEL_LOW, INT_LEVEL_LOW);
		buzzer_time_on = app_regs.REG_TIME_ON_BUZZER;
	}
	
	if (core_bool_is_visual_enabled())
     3de:	0c 94 88 0f 	jmp	0x1f10	; 0x1f10 <core_bool_is_visual_enabled>

000003e2 <uart0_rcv_byte_callback>:
		}
	}
}

void uart0_rcv_byte_callback(uint8_t byte_received)
{
     3e2:	7f 92       	push	r7
     3e4:	8f 92       	push	r8
     3e6:	9f 92       	push	r9
     3e8:	af 92       	push	r10
     3ea:	bf 92       	push	r11
     3ec:	cf 92       	push	r12
     3ee:	df 92       	push	r13
     3f0:	ef 92       	push	r14
     3f2:	ff 92       	push	r15
     3f4:	0f 93       	push	r16
     3f6:	1f 93       	push	r17
     3f8:	cf 93       	push	r28
     3fa:	df 93       	push	r29
	if (rxbuff_pointer == 0)
     3fc:	80 91 04 21 	lds	r24, 0x2104	; 0x802104 <rxbuff_pointer>
     400:	88 23       	and	r24, r24
     402:	99 f0       	breq	.+38     	; 0x42a <__LOCK_REGION_LENGTH__+0x2a>
	{
		timer_type1_enable(&TCD1, TIMER_PRESCALER_DIV1024, 625, INT_LEVEL_LOW);	// 20 ms
	}
	
	rxbuff_uart0[rxbuff_pointer++];
     404:	8f 5f       	subi	r24, 0xFF	; 255
	
	if (rxbuff_pointer == 8)
     406:	88 30       	cpi	r24, 0x08	; 8
     408:	e9 f0       	breq	.+58     	; 0x444 <__LOCK_REGION_LENGTH__+0x44>
	if (rxbuff_pointer == 0)
	{
		timer_type1_enable(&TCD1, TIMER_PRESCALER_DIV1024, 625, INT_LEVEL_LOW);	// 20 ms
	}
	
	rxbuff_uart0[rxbuff_pointer++];
     40a:	80 93 04 21 	sts	0x2104, r24	; 0x802104 <rxbuff_pointer>
				core_func_send_event(ADD_REG_TAG_ID, true);
				notify(app_regs.REG_NOTIFICATIONS);
			}
		}
	}
}
     40e:	df 91       	pop	r29
     410:	cf 91       	pop	r28
     412:	1f 91       	pop	r17
     414:	0f 91       	pop	r16
     416:	ff 90       	pop	r15
     418:	ef 90       	pop	r14
     41a:	df 90       	pop	r13
     41c:	cf 90       	pop	r12
     41e:	bf 90       	pop	r11
     420:	af 90       	pop	r10
     422:	9f 90       	pop	r9
     424:	8f 90       	pop	r8
     426:	7f 90       	pop	r7
     428:	08 95       	ret

void uart0_rcv_byte_callback(uint8_t byte_received)
{
	if (rxbuff_pointer == 0)
	{
		timer_type1_enable(&TCD1, TIMER_PRESCALER_DIV1024, 625, INT_LEVEL_LOW);	// 20 ms
     42a:	21 e0       	ldi	r18, 0x01	; 1
     42c:	41 e7       	ldi	r20, 0x71	; 113
     42e:	52 e0       	ldi	r21, 0x02	; 2
     430:	67 e0       	ldi	r22, 0x07	; 7
     432:	80 e4       	ldi	r24, 0x40	; 64
     434:	99 e0       	ldi	r25, 0x09	; 9
     436:	0e 94 9f 07 	call	0xf3e	; 0xf3e <timer_type1_enable>
     43a:	80 91 04 21 	lds	r24, 0x2104	; 0x802104 <rxbuff_pointer>
	}
	
	rxbuff_uart0[rxbuff_pointer++];
     43e:	8f 5f       	subi	r24, 0xFF	; 255
	
	if (rxbuff_pointer == 8)
     440:	88 30       	cpi	r24, 0x08	; 8
     442:	19 f7       	brne	.-58     	; 0x40a <__LOCK_REGION_LENGTH__+0xa>
	{
		rxbuff_pointer = 0;
     444:	10 92 04 21 	sts	0x2104, r1	; 0x802104 <rxbuff_pointer>
		timer_type0_stop(&TCC0);
     448:	80 e0       	ldi	r24, 0x00	; 0
     44a:	98 e0       	ldi	r25, 0x08	; 8
     44c:	0e 94 f4 06 	call	0xde8	; 0xde8 <timer_type0_stop>
		
		uint8_t checksum = rxbuff_uart0[0] ^ rxbuff_uart0[1] ^ rxbuff_uart0[2] ^ rxbuff_uart0[3] ^ rxbuff_uart0[4];
		
		if (checksum == rxbuff_uart0[5])
     450:	90 90 b1 21 	lds	r9, 0x21B1	; 0x8021b1 <rxbuff_uart0>
     454:	d0 91 b2 21 	lds	r29, 0x21B2	; 0x8021b2 <rxbuff_uart0+0x1>
     458:	e9 2d       	mov	r30, r9
     45a:	ed 27       	eor	r30, r29
     45c:	c0 91 b3 21 	lds	r28, 0x21B3	; 0x8021b3 <rxbuff_uart0+0x2>
     460:	ec 27       	eor	r30, r28
     462:	b0 91 b4 21 	lds	r27, 0x21B4	; 0x8021b4 <rxbuff_uart0+0x3>
     466:	eb 27       	eor	r30, r27
     468:	f0 91 b5 21 	lds	r31, 0x21B5	; 0x8021b5 <rxbuff_uart0+0x4>
     46c:	ef 27       	eor	r30, r31
     46e:	80 91 b6 21 	lds	r24, 0x21B6	; 0x8021b6 <rxbuff_uart0+0x5>
     472:	e8 13       	cpse	r30, r24
     474:	cc cf       	rjmp	.-104    	; 0x40e <__LOCK_REGION_LENGTH__+0xe>
		{
			app_regs.REG_TAG_ID = *((uint64_t*)(rxbuff_uart0));
     476:	70 90 b7 21 	lds	r7, 0x21B7	; 0x8021b7 <rxbuff_uart0+0x6>
     47a:	80 90 b8 21 	lds	r8, 0x21B8	; 0x8021b8 <rxbuff_uart0+0x7>
     47e:	90 92 77 21 	sts	0x2177, r9	; 0x802177 <app_regs>
     482:	d0 93 78 21 	sts	0x2178, r29	; 0x802178 <app_regs+0x1>
     486:	c0 93 79 21 	sts	0x2179, r28	; 0x802179 <app_regs+0x2>
     48a:	b0 93 7a 21 	sts	0x217A, r27	; 0x80217a <app_regs+0x3>
     48e:	f0 93 7b 21 	sts	0x217B, r31	; 0x80217b <app_regs+0x4>
     492:	e0 93 7c 21 	sts	0x217C, r30	; 0x80217c <app_regs+0x5>
     496:	70 92 7d 21 	sts	0x217D, r7	; 0x80217d <app_regs+0x6>
     49a:	80 92 7e 21 	sts	0x217E, r8	; 0x80217e <app_regs+0x7>
		
			if ((app_regs.REG_TAG_MATCH0 != 0) || (app_regs.REG_TAG_MATCH1 != 0) || (app_regs.REG_TAG_MATCH2 != 0) || (app_regs.REG_TAG_MATCH3 != 0 ))
     49e:	a0 90 91 21 	lds	r10, 0x2191	; 0x802191 <app_regs+0x1a>
     4a2:	b0 90 92 21 	lds	r11, 0x2192	; 0x802192 <app_regs+0x1b>
     4a6:	c0 90 93 21 	lds	r12, 0x2193	; 0x802193 <app_regs+0x1c>
     4aa:	d0 90 94 21 	lds	r13, 0x2194	; 0x802194 <app_regs+0x1d>
     4ae:	e0 90 95 21 	lds	r14, 0x2195	; 0x802195 <app_regs+0x1e>
     4b2:	f0 90 96 21 	lds	r15, 0x2196	; 0x802196 <app_regs+0x1f>
     4b6:	00 91 97 21 	lds	r16, 0x2197	; 0x802197 <app_regs+0x20>
     4ba:	10 91 98 21 	lds	r17, 0x2198	; 0x802198 <app_regs+0x21>
     4be:	95 01       	movw	r18, r10
     4c0:	a6 01       	movw	r20, r12
     4c2:	b7 01       	movw	r22, r14
     4c4:	c8 01       	movw	r24, r16
     4c6:	a0 e0       	ldi	r26, 0x00	; 0
     4c8:	0e 94 2d 14 	call	0x285a	; 0x285a <__cmpdi2_s8>
     4cc:	09 f4       	brne	.+2      	; 0x4d0 <__LOCK_REGION_LENGTH__+0xd0>
     4ce:	51 c0       	rjmp	.+162    	; 0x572 <__LOCK_REGION_LENGTH__+0x172>
			{
				if (app_regs.REG_TAG_ID == app_regs.REG_TAG_MATCH0)
     4d0:	29 2d       	mov	r18, r9
     4d2:	3d 2f       	mov	r19, r29
     4d4:	4c 2f       	mov	r20, r28
     4d6:	5b 2f       	mov	r21, r27
     4d8:	6f 2f       	mov	r22, r31
     4da:	7e 2f       	mov	r23, r30
     4dc:	87 2d       	mov	r24, r7
     4de:	98 2d       	mov	r25, r8
     4e0:	0e 94 24 14 	call	0x2848	; 0x2848 <__cmpdi2>
     4e4:	09 f4       	brne	.+2      	; 0x4e8 <__LOCK_REGION_LENGTH__+0xe8>
     4e6:	81 c0       	rjmp	.+258    	; 0x5ea <__LOCK_REGION_LENGTH__+0x1ea>
				{
					core_func_send_event(ADD_REG_TAG_ID, true);
					notify(app_regs.REG_NOTIFICATIONS);
					return;				
				}
				if (app_regs.REG_TAG_ID == app_regs.REG_TAG_MATCH1)
     4e8:	a0 90 99 21 	lds	r10, 0x2199	; 0x802199 <app_regs+0x22>
     4ec:	b0 90 9a 21 	lds	r11, 0x219A	; 0x80219a <app_regs+0x23>
     4f0:	c0 90 9b 21 	lds	r12, 0x219B	; 0x80219b <app_regs+0x24>
     4f4:	d0 90 9c 21 	lds	r13, 0x219C	; 0x80219c <app_regs+0x25>
     4f8:	e0 90 9d 21 	lds	r14, 0x219D	; 0x80219d <app_regs+0x26>
     4fc:	f0 90 9e 21 	lds	r15, 0x219E	; 0x80219e <app_regs+0x27>
     500:	00 91 9f 21 	lds	r16, 0x219F	; 0x80219f <app_regs+0x28>
     504:	10 91 a0 21 	lds	r17, 0x21A0	; 0x8021a0 <app_regs+0x29>
     508:	29 2d       	mov	r18, r9
     50a:	3d 2f       	mov	r19, r29
     50c:	4c 2f       	mov	r20, r28
     50e:	5b 2f       	mov	r21, r27
     510:	6f 2f       	mov	r22, r31
     512:	7e 2f       	mov	r23, r30
     514:	87 2d       	mov	r24, r7
     516:	98 2d       	mov	r25, r8
     518:	0e 94 24 14 	call	0x2848	; 0x2848 <__cmpdi2>
     51c:	09 f4       	brne	.+2      	; 0x520 <__LOCK_REGION_LENGTH__+0x120>
     51e:	65 c0       	rjmp	.+202    	; 0x5ea <__LOCK_REGION_LENGTH__+0x1ea>
				{
					core_func_send_event(ADD_REG_TAG_ID, true);
					notify(app_regs.REG_NOTIFICATIONS);
					return;
				}
				if (app_regs.REG_TAG_ID == app_regs.REG_TAG_MATCH2)
     520:	a0 90 a1 21 	lds	r10, 0x21A1	; 0x8021a1 <app_regs+0x2a>
     524:	b0 90 a2 21 	lds	r11, 0x21A2	; 0x8021a2 <app_regs+0x2b>
     528:	c0 90 a3 21 	lds	r12, 0x21A3	; 0x8021a3 <app_regs+0x2c>
     52c:	d0 90 a4 21 	lds	r13, 0x21A4	; 0x8021a4 <app_regs+0x2d>
     530:	e0 90 a5 21 	lds	r14, 0x21A5	; 0x8021a5 <app_regs+0x2e>
     534:	f0 90 a6 21 	lds	r15, 0x21A6	; 0x8021a6 <app_regs+0x2f>
     538:	00 91 a7 21 	lds	r16, 0x21A7	; 0x8021a7 <app_regs+0x30>
     53c:	10 91 a8 21 	lds	r17, 0x21A8	; 0x8021a8 <app_regs+0x31>
     540:	0e 94 24 14 	call	0x2848	; 0x2848 <__cmpdi2>
     544:	09 f4       	brne	.+2      	; 0x548 <__LOCK_REGION_LENGTH__+0x148>
     546:	51 c0       	rjmp	.+162    	; 0x5ea <__LOCK_REGION_LENGTH__+0x1ea>
				{
					core_func_send_event(ADD_REG_TAG_ID, true);
					notify(app_regs.REG_NOTIFICATIONS);
					return;
				}
				if (app_regs.REG_TAG_ID == app_regs.REG_TAG_MATCH3)
     548:	a0 90 a9 21 	lds	r10, 0x21A9	; 0x8021a9 <app_regs+0x32>
     54c:	b0 90 aa 21 	lds	r11, 0x21AA	; 0x8021aa <app_regs+0x33>
     550:	c0 90 ab 21 	lds	r12, 0x21AB	; 0x8021ab <app_regs+0x34>
     554:	d0 90 ac 21 	lds	r13, 0x21AC	; 0x8021ac <app_regs+0x35>
     558:	e0 90 ad 21 	lds	r14, 0x21AD	; 0x8021ad <app_regs+0x36>
     55c:	f0 90 ae 21 	lds	r15, 0x21AE	; 0x8021ae <app_regs+0x37>
     560:	00 91 af 21 	lds	r16, 0x21AF	; 0x8021af <app_regs+0x38>
     564:	10 91 b0 21 	lds	r17, 0x21B0	; 0x8021b0 <app_regs+0x39>
     568:	0e 94 24 14 	call	0x2848	; 0x2848 <__cmpdi2>
     56c:	09 f0       	breq	.+2      	; 0x570 <__LOCK_REGION_LENGTH__+0x170>
     56e:	4f cf       	rjmp	.-354    	; 0x40e <__LOCK_REGION_LENGTH__+0xe>
     570:	3c c0       	rjmp	.+120    	; 0x5ea <__LOCK_REGION_LENGTH__+0x1ea>
		
		if (checksum == rxbuff_uart0[5])
		{
			app_regs.REG_TAG_ID = *((uint64_t*)(rxbuff_uart0));
		
			if ((app_regs.REG_TAG_MATCH0 != 0) || (app_regs.REG_TAG_MATCH1 != 0) || (app_regs.REG_TAG_MATCH2 != 0) || (app_regs.REG_TAG_MATCH3 != 0 ))
     572:	20 91 99 21 	lds	r18, 0x2199	; 0x802199 <app_regs+0x22>
     576:	30 91 9a 21 	lds	r19, 0x219A	; 0x80219a <app_regs+0x23>
     57a:	40 91 9b 21 	lds	r20, 0x219B	; 0x80219b <app_regs+0x24>
     57e:	50 91 9c 21 	lds	r21, 0x219C	; 0x80219c <app_regs+0x25>
     582:	60 91 9d 21 	lds	r22, 0x219D	; 0x80219d <app_regs+0x26>
     586:	70 91 9e 21 	lds	r23, 0x219E	; 0x80219e <app_regs+0x27>
     58a:	80 91 9f 21 	lds	r24, 0x219F	; 0x80219f <app_regs+0x28>
     58e:	90 91 a0 21 	lds	r25, 0x21A0	; 0x8021a0 <app_regs+0x29>
     592:	0e 94 2d 14 	call	0x285a	; 0x285a <__cmpdi2_s8>
     596:	09 f0       	breq	.+2      	; 0x59a <__LOCK_REGION_LENGTH__+0x19a>
     598:	9b cf       	rjmp	.-202    	; 0x4d0 <__LOCK_REGION_LENGTH__+0xd0>
     59a:	20 91 a1 21 	lds	r18, 0x21A1	; 0x8021a1 <app_regs+0x2a>
     59e:	30 91 a2 21 	lds	r19, 0x21A2	; 0x8021a2 <app_regs+0x2b>
     5a2:	40 91 a3 21 	lds	r20, 0x21A3	; 0x8021a3 <app_regs+0x2c>
     5a6:	50 91 a4 21 	lds	r21, 0x21A4	; 0x8021a4 <app_regs+0x2d>
     5aa:	60 91 a5 21 	lds	r22, 0x21A5	; 0x8021a5 <app_regs+0x2e>
     5ae:	70 91 a6 21 	lds	r23, 0x21A6	; 0x8021a6 <app_regs+0x2f>
     5b2:	80 91 a7 21 	lds	r24, 0x21A7	; 0x8021a7 <app_regs+0x30>
     5b6:	90 91 a8 21 	lds	r25, 0x21A8	; 0x8021a8 <app_regs+0x31>
     5ba:	0e 94 2d 14 	call	0x285a	; 0x285a <__cmpdi2_s8>
     5be:	09 f0       	breq	.+2      	; 0x5c2 <__LOCK_REGION_LENGTH__+0x1c2>
     5c0:	87 cf       	rjmp	.-242    	; 0x4d0 <__LOCK_REGION_LENGTH__+0xd0>
     5c2:	20 91 a9 21 	lds	r18, 0x21A9	; 0x8021a9 <app_regs+0x32>
     5c6:	30 91 aa 21 	lds	r19, 0x21AA	; 0x8021aa <app_regs+0x33>
     5ca:	40 91 ab 21 	lds	r20, 0x21AB	; 0x8021ab <app_regs+0x34>
     5ce:	50 91 ac 21 	lds	r21, 0x21AC	; 0x8021ac <app_regs+0x35>
     5d2:	60 91 ad 21 	lds	r22, 0x21AD	; 0x8021ad <app_regs+0x36>
     5d6:	70 91 ae 21 	lds	r23, 0x21AE	; 0x8021ae <app_regs+0x37>
     5da:	80 91 af 21 	lds	r24, 0x21AF	; 0x8021af <app_regs+0x38>
     5de:	90 91 b0 21 	lds	r25, 0x21B0	; 0x8021b0 <app_regs+0x39>
     5e2:	0e 94 2d 14 	call	0x285a	; 0x285a <__cmpdi2_s8>
     5e6:	09 f0       	breq	.+2      	; 0x5ea <__LOCK_REGION_LENGTH__+0x1ea>
     5e8:	73 cf       	rjmp	.-282    	; 0x4d0 <__LOCK_REGION_LENGTH__+0xd0>
			{
				if (app_regs.REG_TAG_ID == app_regs.REG_TAG_MATCH0)
				{
					core_func_send_event(ADD_REG_TAG_ID, true);
     5ea:	61 e0       	ldi	r22, 0x01	; 1
     5ec:	80 e2       	ldi	r24, 0x20	; 32
     5ee:	0e 94 69 0c 	call	0x18d2	; 0x18d2 <core_func_send_event>
					notify(app_regs.REG_NOTIFICATIONS);
     5f2:	80 91 81 21 	lds	r24, 0x2181	; 0x802181 <app_regs+0xa>
				core_func_send_event(ADD_REG_TAG_ID, true);
				notify(app_regs.REG_NOTIFICATIONS);
			}
		}
	}
}
     5f6:	df 91       	pop	r29
     5f8:	cf 91       	pop	r28
     5fa:	1f 91       	pop	r17
     5fc:	0f 91       	pop	r16
     5fe:	ff 90       	pop	r15
     600:	ef 90       	pop	r14
     602:	df 90       	pop	r13
     604:	cf 90       	pop	r12
     606:	bf 90       	pop	r11
     608:	af 90       	pop	r10
     60a:	9f 90       	pop	r9
     60c:	8f 90       	pop	r8
     60e:	7f 90       	pop	r7
			if ((app_regs.REG_TAG_MATCH0 != 0) || (app_regs.REG_TAG_MATCH1 != 0) || (app_regs.REG_TAG_MATCH2 != 0) || (app_regs.REG_TAG_MATCH3 != 0 ))
			{
				if (app_regs.REG_TAG_ID == app_regs.REG_TAG_MATCH0)
				{
					core_func_send_event(ADD_REG_TAG_ID, true);
					notify(app_regs.REG_NOTIFICATIONS);
     610:	0c 94 82 01 	jmp	0x304	; 0x304 <notify>

00000614 <core_callback_device_to_standby>:
     614:	08 95       	ret

00000616 <core_callback_device_to_active>:
     616:	08 95       	ret

00000618 <core_callback_device_to_speed>:
     618:	08 95       	ret

0000061a <core_callback_t_before_exec>:
     61a:	08 95       	ret

0000061c <core_callback_t_after_exec>:
     61c:	08 95       	ret

0000061e <core_callback_t_new_second>:
     61e:	08 95       	ret

00000620 <core_callback_t_500us>:
     620:	08 95       	ret

00000622 <core_callback_t_1ms>:
void core_callback_t_before_exec(void) {}
void core_callback_t_after_exec(void) {}
void core_callback_t_new_second(void) {}
void core_callback_t_500us(void) {}
void core_callback_t_1ms(void)
{
     622:	ff 92       	push	r15
     624:	0f 93       	push	r16
     626:	1f 93       	push	r17
     628:	cf 93       	push	r28
     62a:	df 93       	push	r29
	if (buzzer_time_on)
     62c:	f0 90 fc 20 	lds	r15, 0x20FC	; 0x8020fc <buzzer_time_on>
     630:	00 91 fd 20 	lds	r16, 0x20FD	; 0x8020fd <buzzer_time_on+0x1>
     634:	10 91 fe 20 	lds	r17, 0x20FE	; 0x8020fe <buzzer_time_on+0x2>
     638:	d0 91 ff 20 	lds	r29, 0x20FF	; 0x8020ff <buzzer_time_on+0x3>
     63c:	c0 91 00 21 	lds	r28, 0x2100	; 0x802100 <buzzer_time_on+0x4>
     640:	b0 91 01 21 	lds	r27, 0x2101	; 0x802101 <buzzer_time_on+0x5>
     644:	f0 91 02 21 	lds	r31, 0x2102	; 0x802102 <buzzer_time_on+0x6>
     648:	e0 91 03 21 	lds	r30, 0x2103	; 0x802103 <buzzer_time_on+0x7>
     64c:	2f 2d       	mov	r18, r15
     64e:	30 2f       	mov	r19, r16
     650:	41 2f       	mov	r20, r17
     652:	5d 2f       	mov	r21, r29
     654:	6c 2f       	mov	r22, r28
     656:	7b 2f       	mov	r23, r27
     658:	8f 2f       	mov	r24, r31
     65a:	9e 2f       	mov	r25, r30
     65c:	a0 e0       	ldi	r26, 0x00	; 0
     65e:	0e 94 2d 14 	call	0x285a	; 0x285a <__cmpdi2_s8>
     662:	c1 f0       	breq	.+48     	; 0x694 <core_callback_t_1ms+0x72>
	{
		if (--buzzer_time_on == 0)
     664:	af ef       	ldi	r26, 0xFF	; 255
     666:	0e 94 18 14 	call	0x2830	; 0x2830 <__adddi3_s8>
     66a:	20 93 fc 20 	sts	0x20FC, r18	; 0x8020fc <buzzer_time_on>
     66e:	30 93 fd 20 	sts	0x20FD, r19	; 0x8020fd <buzzer_time_on+0x1>
     672:	40 93 fe 20 	sts	0x20FE, r20	; 0x8020fe <buzzer_time_on+0x2>
     676:	50 93 ff 20 	sts	0x20FF, r21	; 0x8020ff <buzzer_time_on+0x3>
     67a:	60 93 00 21 	sts	0x2100, r22	; 0x802100 <buzzer_time_on+0x4>
     67e:	70 93 01 21 	sts	0x2101, r23	; 0x802101 <buzzer_time_on+0x5>
     682:	80 93 02 21 	sts	0x2102, r24	; 0x802102 <buzzer_time_on+0x6>
     686:	90 93 03 21 	sts	0x2103, r25	; 0x802103 <buzzer_time_on+0x7>
     68a:	a0 e0       	ldi	r26, 0x00	; 0
     68c:	0e 94 2d 14 	call	0x285a	; 0x285a <__cmpdi2_s8>
     690:	09 f4       	brne	.+2      	; 0x694 <core_callback_t_1ms+0x72>
     692:	59 c0       	rjmp	.+178    	; 0x746 <core_callback_t_1ms+0x124>
		{
			stop_buzzer = true;
		}
	}
	
	if (top_led_time_on)
     694:	80 91 fa 20 	lds	r24, 0x20FA	; 0x8020fa <top_led_time_on>
     698:	90 91 fb 20 	lds	r25, 0x20FB	; 0x8020fb <top_led_time_on+0x1>
     69c:	00 97       	sbiw	r24, 0x00	; 0
     69e:	01 f1       	breq	.+64     	; 0x6e0 <core_callback_t_1ms+0xbe>
	{
		if (--top_led_period == 0)
     6a0:	20 91 f6 20 	lds	r18, 0x20F6	; 0x8020f6 <top_led_period>
     6a4:	30 91 f7 20 	lds	r19, 0x20F7	; 0x8020f7 <top_led_period+0x1>
     6a8:	21 50       	subi	r18, 0x01	; 1
     6aa:	31 09       	sbc	r19, r1
     6ac:	20 93 f6 20 	sts	0x20F6, r18	; 0x8020f6 <top_led_period>
     6b0:	30 93 f7 20 	sts	0x20F7, r19	; 0x8020f7 <top_led_period+0x1>
     6b4:	23 2b       	or	r18, r19
     6b6:	69 f4       	brne	.+26     	; 0x6d2 <core_callback_t_1ms+0xb0>
		{
			tgl_LED_DETECT_TOP;
     6b8:	20 e1       	ldi	r18, 0x10	; 16
     6ba:	20 93 67 06 	sts	0x0667, r18	; 0x800667 <__TEXT_REGION_LENGTH__+0x700667>
			top_led_period = app_regs.REG_LED_TOP_BLINK_PERIOD >> 1;		// Divide by 2
     6be:	20 91 8b 21 	lds	r18, 0x218B	; 0x80218b <app_regs+0x14>
     6c2:	30 91 8c 21 	lds	r19, 0x218C	; 0x80218c <app_regs+0x15>
     6c6:	36 95       	lsr	r19
     6c8:	27 95       	ror	r18
     6ca:	20 93 f6 20 	sts	0x20F6, r18	; 0x8020f6 <top_led_period>
     6ce:	30 93 f7 20 	sts	0x20F7, r19	; 0x8020f7 <top_led_period+0x1>
		}
		
		if (--top_led_time_on == 0)
     6d2:	01 97       	sbiw	r24, 0x01	; 1
     6d4:	80 93 fa 20 	sts	0x20FA, r24	; 0x8020fa <top_led_time_on>
     6d8:	90 93 fb 20 	sts	0x20FB, r25	; 0x8020fb <top_led_time_on+0x1>
     6dc:	89 2b       	or	r24, r25
     6de:	79 f1       	breq	.+94     	; 0x73e <core_callback_t_1ms+0x11c>
		{
			clr_LED_DETECT_TOP;
		}
	}

	if (bottom_led_time_on)
     6e0:	80 91 f8 20 	lds	r24, 0x20F8	; 0x8020f8 <bottom_led_time_on>
     6e4:	90 91 f9 20 	lds	r25, 0x20F9	; 0x8020f9 <bottom_led_time_on+0x1>
     6e8:	00 97       	sbiw	r24, 0x00	; 0
     6ea:	19 f1       	breq	.+70     	; 0x732 <core_callback_t_1ms+0x110>
	{
		if (--bottom_led_period == 0)
     6ec:	20 91 f4 20 	lds	r18, 0x20F4	; 0x8020f4 <__data_end>
     6f0:	30 91 f5 20 	lds	r19, 0x20F5	; 0x8020f5 <__data_end+0x1>
     6f4:	21 50       	subi	r18, 0x01	; 1
     6f6:	31 09       	sbc	r19, r1
     6f8:	20 93 f4 20 	sts	0x20F4, r18	; 0x8020f4 <__data_end>
     6fc:	30 93 f5 20 	sts	0x20F5, r19	; 0x8020f5 <__data_end+0x1>
     700:	23 2b       	or	r18, r19
     702:	69 f4       	brne	.+26     	; 0x71e <core_callback_t_1ms+0xfc>
		{
			tgl_LED_DETECT_BOTTOM;
     704:	24 e0       	ldi	r18, 0x04	; 4
     706:	20 93 47 06 	sts	0x0647, r18	; 0x800647 <__TEXT_REGION_LENGTH__+0x700647>
			bottom_led_period = app_regs.REG_LED_BOTTOM_BLINK_PERIOD >> 1;	// Divide by 2
     70a:	20 91 8d 21 	lds	r18, 0x218D	; 0x80218d <app_regs+0x16>
     70e:	30 91 8e 21 	lds	r19, 0x218E	; 0x80218e <app_regs+0x17>
     712:	36 95       	lsr	r19
     714:	27 95       	ror	r18
     716:	20 93 f4 20 	sts	0x20F4, r18	; 0x8020f4 <__data_end>
     71a:	30 93 f5 20 	sts	0x20F5, r19	; 0x8020f5 <__data_end+0x1>
		}
		
		if (--bottom_led_time_on == 0)
     71e:	01 97       	sbiw	r24, 0x01	; 1
     720:	80 93 f8 20 	sts	0x20F8, r24	; 0x8020f8 <bottom_led_time_on>
     724:	90 93 f9 20 	sts	0x20F9, r25	; 0x8020f9 <bottom_led_time_on+0x1>
     728:	89 2b       	or	r24, r25
     72a:	19 f4       	brne	.+6      	; 0x732 <core_callback_t_1ms+0x110>
		{
			clr_LED_DETECT_BOTTOM;
     72c:	84 e0       	ldi	r24, 0x04	; 4
     72e:	80 93 46 06 	sts	0x0646, r24	; 0x800646 <__TEXT_REGION_LENGTH__+0x700646>
		}
	}
}
     732:	df 91       	pop	r29
     734:	cf 91       	pop	r28
     736:	1f 91       	pop	r17
     738:	0f 91       	pop	r16
     73a:	ff 90       	pop	r15
     73c:	08 95       	ret
			top_led_period = app_regs.REG_LED_TOP_BLINK_PERIOD >> 1;		// Divide by 2
		}
		
		if (--top_led_time_on == 0)
		{
			clr_LED_DETECT_TOP;
     73e:	80 e1       	ldi	r24, 0x10	; 16
     740:	80 93 66 06 	sts	0x0666, r24	; 0x800666 <__TEXT_REGION_LENGTH__+0x700666>
     744:	cd cf       	rjmp	.-102    	; 0x6e0 <core_callback_t_1ms+0xbe>
{
	if (buzzer_time_on)
	{
		if (--buzzer_time_on == 0)
		{
			stop_buzzer = true;
     746:	81 e0       	ldi	r24, 0x01	; 1
     748:	80 93 73 21 	sts	0x2173, r24	; 0x802173 <stop_buzzer>
     74c:	a3 cf       	rjmp	.-186    	; 0x694 <core_callback_t_1ms+0x72>

0000074e <core_callback_uart_rx_before_exec>:
     74e:	08 95       	ret

00000750 <core_callback_uart_rx_after_exec>:
     750:	08 95       	ret

00000752 <core_callback_uart_tx_before_exec>:
     752:	08 95       	ret

00000754 <core_callback_uart_tx_after_exec>:
     754:	08 95       	ret

00000756 <core_callback_uart_cts_before_exec>:
     756:	08 95       	ret

00000758 <core_callback_uart_cts_after_exec>:
void core_callback_uart_rx_before_exec(void) {}
void core_callback_uart_rx_after_exec(void) {}
void core_callback_uart_tx_before_exec(void) {}
void core_callback_uart_tx_after_exec(void) {}
void core_callback_uart_cts_before_exec(void) {}
void core_callback_uart_cts_after_exec(void) {}
     758:	08 95       	ret

0000075a <core_read_app_register>:
/* Callbacks: Read app register                                         */
/************************************************************************/
bool core_read_app_register(uint8_t add, uint8_t type)
{
	/* Check if it will not access forbidden memory */
	if (add < APP_REGS_ADD_MIN || add > APP_REGS_ADD_MAX)
     75a:	90 ee       	ldi	r25, 0xE0	; 224
     75c:	98 0f       	add	r25, r24
     75e:	91 31       	cpi	r25, 0x11	; 17
     760:	40 f4       	brcc	.+16     	; 0x772 <core_read_app_register+0x18>
		return false;
	
	/* Check if type matches */
	if (app_regs_type[add-APP_REGS_ADD_MIN] != type)
     762:	90 e0       	ldi	r25, 0x00	; 0
     764:	80 97       	sbiw	r24, 0x20	; 32
     766:	fc 01       	movw	r30, r24
     768:	e8 57       	subi	r30, 0x78	; 120
     76a:	ff 4d       	sbci	r31, 0xDF	; 223
     76c:	20 81       	ld	r18, Z
     76e:	26 17       	cp	r18, r22
     770:	11 f0       	breq	.+4      	; 0x776 <core_read_app_register+0x1c>
/************************************************************************/
bool core_read_app_register(uint8_t add, uint8_t type)
{
	/* Check if it will not access forbidden memory */
	if (add < APP_REGS_ADD_MIN || add > APP_REGS_ADD_MAX)
		return false;
     772:	80 e0       	ldi	r24, 0x00	; 0
	/* Receive data */
	(*app_func_rd_pointer[add-APP_REGS_ADD_MIN])();	

	/* Return success */
	return true;
}
     774:	08 95       	ret
	/* Check if type matches */
	if (app_regs_type[add-APP_REGS_ADD_MIN] != type)
		return false;
	
	/* Receive data */
	(*app_func_rd_pointer[add-APP_REGS_ADD_MIN])();	
     776:	88 0f       	add	r24, r24
     778:	99 1f       	adc	r25, r25
     77a:	fc 01       	movw	r30, r24
     77c:	ee 5d       	subi	r30, 0xDE	; 222
     77e:	ff 4d       	sbci	r31, 0xDF	; 223
     780:	01 90       	ld	r0, Z+
     782:	f0 81       	ld	r31, Z
     784:	e0 2d       	mov	r30, r0
     786:	09 95       	icall

	/* Return success */
	return true;
     788:	81 e0       	ldi	r24, 0x01	; 1
     78a:	08 95       	ret

0000078c <core_write_app_register>:
/* Callbacks: Write app register                                        */
/************************************************************************/
bool core_write_app_register(uint8_t add, uint8_t type, uint8_t * content, uint16_t n_elements)
{
	/* Check if it will not access forbidden memory */
	if (add < APP_REGS_ADD_MIN || add > APP_REGS_ADD_MAX)
     78c:	90 ee       	ldi	r25, 0xE0	; 224
     78e:	98 0f       	add	r25, r24
     790:	91 31       	cpi	r25, 0x11	; 17
     792:	48 f4       	brcc	.+18     	; 0x7a6 <core_write_app_register+0x1a>
		return false;
	
	/* Check if type matches */
	if (app_regs_type[add-APP_REGS_ADD_MIN] != type)
     794:	e8 2f       	mov	r30, r24
     796:	f0 e0       	ldi	r31, 0x00	; 0
     798:	b0 97       	sbiw	r30, 0x20	; 32
     79a:	df 01       	movw	r26, r30
     79c:	a8 57       	subi	r26, 0x78	; 120
     79e:	bf 4d       	sbci	r27, 0xDF	; 223
     7a0:	9c 91       	ld	r25, X
     7a2:	96 17       	cp	r25, r22
     7a4:	11 f0       	breq	.+4      	; 0x7aa <core_write_app_register+0x1e>
	if (app_regs_n_elements[add-APP_REGS_ADD_MIN] != n_elements)
		return false;

	/* Process data and return false if write is not allowed or contains errors */
	return (*app_func_wr_pointer[add-APP_REGS_ADD_MIN])(content);
     7a6:	80 e0       	ldi	r24, 0x00	; 0
     7a8:	08 95       	ret
	/* Check if type matches */
	if (app_regs_type[add-APP_REGS_ADD_MIN] != type)
		return false;

	/* Check if the number of elements matches */
	if (app_regs_n_elements[add-APP_REGS_ADD_MIN] != n_elements)
     7aa:	ee 0f       	add	r30, r30
     7ac:	ff 1f       	adc	r31, r31
     7ae:	df 01       	movw	r26, r30
     7b0:	aa 59       	subi	r26, 0x9A	; 154
     7b2:	bf 4d       	sbci	r27, 0xDF	; 223
     7b4:	8d 91       	ld	r24, X+
     7b6:	9c 91       	ld	r25, X
     7b8:	82 17       	cp	r24, r18
     7ba:	93 07       	cpc	r25, r19
     7bc:	a1 f7       	brne	.-24     	; 0x7a6 <core_write_app_register+0x1a>
		return false;

	/* Process data and return false if write is not allowed or contains errors */
	return (*app_func_wr_pointer[add-APP_REGS_ADD_MIN])(content);
     7be:	e0 50       	subi	r30, 0x00	; 0
     7c0:	f0 4e       	sbci	r31, 0xE0	; 224
     7c2:	01 90       	ld	r0, Z+
     7c4:	f0 81       	ld	r31, Z
     7c6:	e0 2d       	mov	r30, r0
     7c8:	ca 01       	movw	r24, r20
     7ca:	09 94       	ijmp

000007cc <app_write_REG_TAG_ID>:

/************************************************************************/
/* REG_TAG_ID                                                           */
/************************************************************************/
void app_read_REG_TAG_ID(void) {}
bool app_write_REG_TAG_ID(void *a) {return false;}
     7cc:	80 e0       	ldi	r24, 0x00	; 0
     7ce:	08 95       	ret

000007d0 <app_write_REG_RESERVED0>:
/* REG_RESERVED0                                                        */
/************************************************************************/
void app_read_REG_RESERVED0(void) {}
bool app_write_REG_RESERVED0(void *a)
{
	uint8_t reg = *((uint8_t*)a);
     7d0:	fc 01       	movw	r30, r24
     7d2:	80 81       	ld	r24, Z

	app_regs.REG_RESERVED0 = reg;
     7d4:	80 93 7f 21 	sts	0x217F, r24	; 0x80217f <app_regs+0x8>
	return true;
}
     7d8:	81 e0       	ldi	r24, 0x01	; 1
     7da:	08 95       	ret

000007dc <app_write_REG_RESERVED1>:
/* REG_RESERVED1                                                        */
/************************************************************************/
void app_read_REG_RESERVED1(void) {}
bool app_write_REG_RESERVED1(void *a)
{
	uint8_t reg = *((uint8_t*)a);
     7dc:	fc 01       	movw	r30, r24
     7de:	80 81       	ld	r24, Z

	app_regs.REG_RESERVED1 = reg;
     7e0:	80 93 80 21 	sts	0x2180, r24	; 0x802180 <app_regs+0x9>
	return true;
}
     7e4:	81 e0       	ldi	r24, 0x01	; 1
     7e6:	08 95       	ret

000007e8 <app_write_REG_NOTIFICATIONS>:
/* REG_NOTIFICATIONS                                                    */
/************************************************************************/
void app_read_REG_NOTIFICATIONS(void) {}
bool app_write_REG_NOTIFICATIONS(void *a)
{
	uint8_t reg = *((uint8_t*)a);
     7e8:	fc 01       	movw	r30, r24
     7ea:	80 81       	ld	r24, Z

	app_regs.REG_NOTIFICATIONS = reg;
     7ec:	80 93 81 21 	sts	0x2181, r24	; 0x802181 <app_regs+0xa>
	return true;
}
     7f0:	81 e0       	ldi	r24, 0x01	; 1
     7f2:	08 95       	ret

000007f4 <app_write_REG_TIME_ON_BUZZER>:
/* REG_TIME_ON_BUZZER                                                   */
/************************************************************************/
void app_read_REG_TIME_ON_BUZZER(void) {}
bool app_write_REG_TIME_ON_BUZZER(void *a)
{
	uint16_t reg = *((uint16_t*)a);
     7f4:	fc 01       	movw	r30, r24
     7f6:	80 81       	ld	r24, Z
     7f8:	91 81       	ldd	r25, Z+1	; 0x01

	app_regs.REG_TIME_ON_BUZZER = reg;
     7fa:	80 93 83 21 	sts	0x2183, r24	; 0x802183 <app_regs+0xc>
     7fe:	90 93 84 21 	sts	0x2184, r25	; 0x802184 <app_regs+0xd>
	return true;
}
     802:	81 e0       	ldi	r24, 0x01	; 1
     804:	08 95       	ret

00000806 <app_write_REG_TIME_ON_LED_TOP>:
/* REG_TIME_ON_LED_TOP                                                  */
/************************************************************************/
void app_read_REG_TIME_ON_LED_TOP(void) {}
bool app_write_REG_TIME_ON_LED_TOP(void *a)
{
	uint16_t reg = *((uint16_t*)a);
     806:	fc 01       	movw	r30, r24
     808:	80 81       	ld	r24, Z
     80a:	91 81       	ldd	r25, Z+1	; 0x01

	app_regs.REG_TIME_ON_LED_TOP = reg;
     80c:	80 93 85 21 	sts	0x2185, r24	; 0x802185 <app_regs+0xe>
     810:	90 93 86 21 	sts	0x2186, r25	; 0x802186 <app_regs+0xf>
	return true;
}
     814:	81 e0       	ldi	r24, 0x01	; 1
     816:	08 95       	ret

00000818 <app_write_REG_TIME_ON_LED_BOTTOM>:
/* REG_TIME_ON_LED_BOTTOM                                               */
/************************************************************************/
void app_read_REG_TIME_ON_LED_BOTTOM(void) {}
bool app_write_REG_TIME_ON_LED_BOTTOM(void *a)
{
	uint16_t reg = *((uint16_t*)a);
     818:	fc 01       	movw	r30, r24
     81a:	80 81       	ld	r24, Z
     81c:	91 81       	ldd	r25, Z+1	; 0x01

	app_regs.REG_TIME_ON_LED_BOTTOM = reg;
     81e:	80 93 87 21 	sts	0x2187, r24	; 0x802187 <app_regs+0x10>
     822:	90 93 88 21 	sts	0x2188, r25	; 0x802188 <app_regs+0x11>
	return true;
}
     826:	81 e0       	ldi	r24, 0x01	; 1
     828:	08 95       	ret

0000082a <app_write_REG_LED_TOP_BLINK_PERIOD>:
/* REG_LED_TOP_BLINK_PERIOD                                             */
/************************************************************************/
void app_read_REG_LED_TOP_BLINK_PERIOD(void) {}
bool app_write_REG_LED_TOP_BLINK_PERIOD(void *a)
{
	uint16_t reg = *((uint16_t*)a);
     82a:	fc 01       	movw	r30, r24
     82c:	80 81       	ld	r24, Z
     82e:	91 81       	ldd	r25, Z+1	; 0x01
	
	if (reg < 2)
     830:	82 30       	cpi	r24, 0x02	; 2
     832:	91 05       	cpc	r25, r1
     834:	30 f0       	brcs	.+12     	; 0x842 <app_write_REG_LED_TOP_BLINK_PERIOD+0x18>
		return false;
	
	app_regs.REG_LED_TOP_BLINK_PERIOD = reg;
     836:	80 93 8b 21 	sts	0x218B, r24	; 0x80218b <app_regs+0x14>
     83a:	90 93 8c 21 	sts	0x218C, r25	; 0x80218c <app_regs+0x15>
	return true;
     83e:	81 e0       	ldi	r24, 0x01	; 1
     840:	08 95       	ret
bool app_write_REG_LED_TOP_BLINK_PERIOD(void *a)
{
	uint16_t reg = *((uint16_t*)a);
	
	if (reg < 2)
		return false;
     842:	80 e0       	ldi	r24, 0x00	; 0
	
	app_regs.REG_LED_TOP_BLINK_PERIOD = reg;
	return true;
}
     844:	08 95       	ret

00000846 <app_write_REG_LED_BOTTOM_BLINK_PERIOD>:
/* REG_LED_BOTTOM_BLINK_PERIOD                                          */
/************************************************************************/
void app_read_REG_LED_BOTTOM_BLINK_PERIOD(void) {}
bool app_write_REG_LED_BOTTOM_BLINK_PERIOD(void *a)
{
	uint16_t reg = *((uint16_t*)a);
     846:	fc 01       	movw	r30, r24
     848:	80 81       	ld	r24, Z
     84a:	91 81       	ldd	r25, Z+1	; 0x01
	
	if (reg < 2)
     84c:	82 30       	cpi	r24, 0x02	; 2
     84e:	91 05       	cpc	r25, r1
     850:	30 f0       	brcs	.+12     	; 0x85e <app_write_REG_LED_BOTTOM_BLINK_PERIOD+0x18>
		return false;
	
	app_regs.REG_LED_BOTTOM_BLINK_PERIOD = reg;
     852:	80 93 8d 21 	sts	0x218D, r24	; 0x80218d <app_regs+0x16>
     856:	90 93 8e 21 	sts	0x218E, r25	; 0x80218e <app_regs+0x17>
	return true;
     85a:	81 e0       	ldi	r24, 0x01	; 1
     85c:	08 95       	ret
bool app_write_REG_LED_BOTTOM_BLINK_PERIOD(void *a)
{
	uint16_t reg = *((uint16_t*)a);
	
	if (reg < 2)
		return false;
     85e:	80 e0       	ldi	r24, 0x00	; 0
	
	app_regs.REG_LED_BOTTOM_BLINK_PERIOD = reg;
	return true;
}
     860:	08 95       	ret

00000862 <app_write_REG_RESERVED4>:
/* REG_RESERVED4                                                        */
/************************************************************************/
void app_read_REG_RESERVED4(void) {}
bool app_write_REG_RESERVED4(void *a)
{
	uint8_t reg = *((uint8_t*)a);
     862:	fc 01       	movw	r30, r24
     864:	80 81       	ld	r24, Z

	app_regs.REG_RESERVED4 = reg;
     866:	80 93 8f 21 	sts	0x218F, r24	; 0x80218f <app_regs+0x18>
	return true;
}
     86a:	81 e0       	ldi	r24, 0x01	; 1
     86c:	08 95       	ret

0000086e <app_write_REG_RESERVED5>:
/* REG_RESERVED5                                                        */
/************************************************************************/
void app_read_REG_RESERVED5(void) {}
bool app_write_REG_RESERVED5(void *a)
{
	uint8_t reg = *((uint8_t*)a);
     86e:	fc 01       	movw	r30, r24
     870:	80 81       	ld	r24, Z

	app_regs.REG_RESERVED5 = reg;
     872:	80 93 90 21 	sts	0x2190, r24	; 0x802190 <app_regs+0x19>
	return true;
}
     876:	81 e0       	ldi	r24, 0x01	; 1
     878:	08 95       	ret

0000087a <app_write_REG_TAG_MATCH0>:
/************************************************************************/
/* REG_TAG_MATCH0                                                       */
/************************************************************************/
void app_read_REG_TAG_MATCH0(void) {}
bool app_write_REG_TAG_MATCH0(void *a)
{
     87a:	fc 01       	movw	r30, r24
	uint64_t reg = *((uint64_t*)a);
     87c:	70 81       	ld	r23, Z
     87e:	61 81       	ldd	r22, Z+1	; 0x01
     880:	52 81       	ldd	r21, Z+2	; 0x02
     882:	43 81       	ldd	r20, Z+3	; 0x03
     884:	34 81       	ldd	r19, Z+4	; 0x04
     886:	25 81       	ldd	r18, Z+5	; 0x05
     888:	96 81       	ldd	r25, Z+6	; 0x06
     88a:	87 81       	ldd	r24, Z+7	; 0x07

	app_regs.REG_TAG_MATCH0 = reg;
     88c:	e7 e7       	ldi	r30, 0x77	; 119
     88e:	f1 e2       	ldi	r31, 0x21	; 33
     890:	72 8f       	std	Z+26, r23	; 0x1a
     892:	63 8f       	std	Z+27, r22	; 0x1b
     894:	54 8f       	std	Z+28, r21	; 0x1c
     896:	45 8f       	std	Z+29, r20	; 0x1d
     898:	36 8f       	std	Z+30, r19	; 0x1e
     89a:	27 8f       	std	Z+31, r18	; 0x1f
     89c:	90 a3       	std	Z+32, r25	; 0x20
     89e:	81 a3       	std	Z+33, r24	; 0x21
	return true;
}
     8a0:	81 e0       	ldi	r24, 0x01	; 1
     8a2:	08 95       	ret

000008a4 <app_write_REG_TAG_MATCH1>:
/************************************************************************/
/* REG_TAG_MATCH1                                                       */
/************************************************************************/
void app_read_REG_TAG_MATCH1(void) {}
bool app_write_REG_TAG_MATCH1(void *a)
{
     8a4:	fc 01       	movw	r30, r24
	uint64_t reg = *((uint64_t*)a);
     8a6:	70 81       	ld	r23, Z
     8a8:	61 81       	ldd	r22, Z+1	; 0x01
     8aa:	52 81       	ldd	r21, Z+2	; 0x02
     8ac:	43 81       	ldd	r20, Z+3	; 0x03
     8ae:	34 81       	ldd	r19, Z+4	; 0x04
     8b0:	25 81       	ldd	r18, Z+5	; 0x05
     8b2:	96 81       	ldd	r25, Z+6	; 0x06
     8b4:	87 81       	ldd	r24, Z+7	; 0x07

	app_regs.REG_TAG_MATCH1 = reg;
     8b6:	e7 e7       	ldi	r30, 0x77	; 119
     8b8:	f1 e2       	ldi	r31, 0x21	; 33
     8ba:	72 a3       	std	Z+34, r23	; 0x22
     8bc:	63 a3       	std	Z+35, r22	; 0x23
     8be:	54 a3       	std	Z+36, r21	; 0x24
     8c0:	45 a3       	std	Z+37, r20	; 0x25
     8c2:	36 a3       	std	Z+38, r19	; 0x26
     8c4:	27 a3       	std	Z+39, r18	; 0x27
     8c6:	90 a7       	std	Z+40, r25	; 0x28
     8c8:	81 a7       	std	Z+41, r24	; 0x29
	return true;
}
     8ca:	81 e0       	ldi	r24, 0x01	; 1
     8cc:	08 95       	ret

000008ce <app_write_REG_TAG_MATCH2>:
/************************************************************************/
/* REG_TAG_MATCH2                                                       */
/************************************************************************/
void app_read_REG_TAG_MATCH2(void) {}
bool app_write_REG_TAG_MATCH2(void *a)
{
     8ce:	fc 01       	movw	r30, r24
	uint64_t reg = *((uint64_t*)a);
     8d0:	70 81       	ld	r23, Z
     8d2:	61 81       	ldd	r22, Z+1	; 0x01
     8d4:	52 81       	ldd	r21, Z+2	; 0x02
     8d6:	43 81       	ldd	r20, Z+3	; 0x03
     8d8:	34 81       	ldd	r19, Z+4	; 0x04
     8da:	25 81       	ldd	r18, Z+5	; 0x05
     8dc:	96 81       	ldd	r25, Z+6	; 0x06
     8de:	87 81       	ldd	r24, Z+7	; 0x07

	app_regs.REG_TAG_MATCH2 = reg;
     8e0:	e7 e7       	ldi	r30, 0x77	; 119
     8e2:	f1 e2       	ldi	r31, 0x21	; 33
     8e4:	72 a7       	std	Z+42, r23	; 0x2a
     8e6:	63 a7       	std	Z+43, r22	; 0x2b
     8e8:	54 a7       	std	Z+44, r21	; 0x2c
     8ea:	45 a7       	std	Z+45, r20	; 0x2d
     8ec:	36 a7       	std	Z+46, r19	; 0x2e
     8ee:	27 a7       	std	Z+47, r18	; 0x2f
     8f0:	90 ab       	std	Z+48, r25	; 0x30
     8f2:	81 ab       	std	Z+49, r24	; 0x31
	return true;
}
     8f4:	81 e0       	ldi	r24, 0x01	; 1
     8f6:	08 95       	ret

000008f8 <app_read_REG_TAG_MATCH3>:


/************************************************************************/
/* REG_TAG_MATCH3                                                       */
/************************************************************************/
void app_read_REG_TAG_MATCH3(void) {}
     8f8:	08 95       	ret

000008fa <app_write_REG_TAG_MATCH3>:
bool app_write_REG_TAG_MATCH3(void *a)
{
     8fa:	fc 01       	movw	r30, r24
	uint64_t reg = *((uint64_t*)a);
     8fc:	70 81       	ld	r23, Z
     8fe:	61 81       	ldd	r22, Z+1	; 0x01
     900:	52 81       	ldd	r21, Z+2	; 0x02
     902:	43 81       	ldd	r20, Z+3	; 0x03
     904:	34 81       	ldd	r19, Z+4	; 0x04
     906:	25 81       	ldd	r18, Z+5	; 0x05
     908:	96 81       	ldd	r25, Z+6	; 0x06
     90a:	87 81       	ldd	r24, Z+7	; 0x07

	app_regs.REG_TAG_MATCH3 = reg;
     90c:	e7 e7       	ldi	r30, 0x77	; 119
     90e:	f1 e2       	ldi	r31, 0x21	; 33
     910:	72 ab       	std	Z+50, r23	; 0x32
     912:	63 ab       	std	Z+51, r22	; 0x33
     914:	54 ab       	std	Z+52, r21	; 0x34
     916:	45 ab       	std	Z+53, r20	; 0x35
     918:	36 ab       	std	Z+54, r19	; 0x36
     91a:	27 ab       	std	Z+55, r18	; 0x37
     91c:	90 af       	std	Z+56, r25	; 0x38
     91e:	81 af       	std	Z+57, r24	; 0x39
	return true;
     920:	81 e0       	ldi	r24, 0x01	; 1
     922:	08 95       	ret

00000924 <app_write_REG_TRIGGER_NOTIFICATIONS>:
/************************************************************************/
extern void notify(uint8_t notify_mask);

void app_read_REG_TRIGGER_NOTIFICATIONS(void) {}
bool app_write_REG_TRIGGER_NOTIFICATIONS(void *a)
{
     924:	cf 93       	push	r28
	uint8_t reg = *((uint8_t*)a);
     926:	fc 01       	movw	r30, r24
     928:	c0 81       	ld	r28, Z

	notify(reg);	
     92a:	8c 2f       	mov	r24, r28
     92c:	0e 94 82 01 	call	0x304	; 0x304 <notify>

	app_regs.REG_TRIGGER_NOTIFICATIONS = reg;
     930:	c0 93 82 21 	sts	0x2182, r28	; 0x802182 <app_regs+0xb>
	return true;
}
     934:	81 e0       	ldi	r24, 0x01	; 1
     936:	cf 91       	pop	r28
     938:	08 95       	ret

0000093a <app_write_REG_BUZZER_FREQUENCY>:
uint8_t buzzer_prescaler;
uint16_t buzzer_target_count;

void app_read_REG_BUZZER_FREQUENCY(void) {}
bool app_write_REG_BUZZER_FREQUENCY(void *a)
{
     93a:	ef 92       	push	r14
     93c:	ff 92       	push	r15
     93e:	0f 93       	push	r16
     940:	1f 93       	push	r17
     942:	cf 93       	push	r28
     944:	df 93       	push	r29
	uint16_t reg = *((uint16_t*)a);
     946:	fc 01       	movw	r30, r24
     948:	c0 81       	ld	r28, Z
     94a:	d1 81       	ldd	r29, Z+1	; 0x01
	
	if (reg > 15000) return false;
	if (reg < 200) return false;
     94c:	ce 01       	movw	r24, r28
     94e:	88 5c       	subi	r24, 0xC8	; 200
     950:	91 09       	sbc	r25, r1
     952:	81 3d       	cpi	r24, 0xD1	; 209
     954:	99 43       	sbci	r25, 0x39	; 57
     956:	40 f0       	brcs	.+16     	; 0x968 <app_write_REG_BUZZER_FREQUENCY+0x2e>
     958:	80 e0       	ldi	r24, 0x00	; 0
	
	calculate_timer_16bits(32000000, reg, &buzzer_prescaler, &buzzer_target_count);	

	app_regs.REG_BUZZER_FREQUENCY = reg;
	return true;
}
     95a:	df 91       	pop	r29
     95c:	cf 91       	pop	r28
     95e:	1f 91       	pop	r17
     960:	0f 91       	pop	r16
     962:	ff 90       	pop	r15
     964:	ef 90       	pop	r14
     966:	08 95       	ret
	uint16_t reg = *((uint16_t*)a);
	
	if (reg > 15000) return false;
	if (reg < 200) return false;
	
	calculate_timer_16bits(32000000, reg, &buzzer_prescaler, &buzzer_target_count);	
     968:	be 01       	movw	r22, r28
     96a:	80 e0       	ldi	r24, 0x00	; 0
     96c:	90 e0       	ldi	r25, 0x00	; 0
     96e:	0e 94 81 05 	call	0xb02	; 0xb02 <__floatunsisf>
     972:	9b 01       	movw	r18, r22
     974:	ac 01       	movw	r20, r24
     976:	84 e7       	ldi	r24, 0x74	; 116
     978:	e8 2e       	mov	r14, r24
     97a:	81 e2       	ldi	r24, 0x21	; 33
     97c:	f8 2e       	mov	r15, r24
     97e:	06 e7       	ldi	r16, 0x76	; 118
     980:	11 e2       	ldi	r17, 0x21	; 33
     982:	60 e0       	ldi	r22, 0x00	; 0
     984:	78 e4       	ldi	r23, 0x48	; 72
     986:	88 ee       	ldi	r24, 0xE8	; 232
     988:	91 e0       	ldi	r25, 0x01	; 1
     98a:	0e 94 f9 06 	call	0xdf2	; 0xdf2 <calculate_timer_16bits>

	app_regs.REG_BUZZER_FREQUENCY = reg;
     98e:	c0 93 89 21 	sts	0x2189, r28	; 0x802189 <app_regs+0x12>
     992:	d0 93 8a 21 	sts	0x218A, r29	; 0x80218a <app_regs+0x13>
	return true;
     996:	81 e0       	ldi	r24, 0x01	; 1
}
     998:	df 91       	pop	r29
     99a:	cf 91       	pop	r28
     99c:	1f 91       	pop	r17
     99e:	0f 91       	pop	r16
     9a0:	ff 90       	pop	r15
     9a2:	ef 90       	pop	r14
     9a4:	08 95       	ret

000009a6 <app_read_REG_TAG_MATCH2>:
     9a6:	08 95       	ret

000009a8 <app_read_REG_TAG_ID>:
     9a8:	08 95       	ret

000009aa <app_read_REG_RESERVED0>:
     9aa:	08 95       	ret

000009ac <app_read_REG_RESERVED1>:
     9ac:	08 95       	ret

000009ae <app_read_REG_NOTIFICATIONS>:
     9ae:	08 95       	ret

000009b0 <app_read_REG_TRIGGER_NOTIFICATIONS>:
     9b0:	08 95       	ret

000009b2 <app_read_REG_TIME_ON_BUZZER>:
     9b2:	08 95       	ret

000009b4 <app_read_REG_TIME_ON_LED_TOP>:
     9b4:	08 95       	ret

000009b6 <app_read_REG_TIME_ON_LED_BOTTOM>:
     9b6:	08 95       	ret

000009b8 <app_read_REG_BUZZER_FREQUENCY>:
     9b8:	08 95       	ret

000009ba <app_read_REG_LED_TOP_BLINK_PERIOD>:
     9ba:	08 95       	ret

000009bc <app_read_REG_LED_BOTTOM_BLINK_PERIOD>:
     9bc:	08 95       	ret

000009be <app_read_REG_RESERVED4>:
     9be:	08 95       	ret

000009c0 <app_read_REG_RESERVED5>:
     9c0:	08 95       	ret

000009c2 <app_read_REG_TAG_MATCH0>:
     9c2:	08 95       	ret

000009c4 <app_read_REG_TAG_MATCH1>:
     9c4:	08 95       	ret

000009c6 <init_ios>:

/************************************************************************/
/* Configure and initialize IOs                                         */
/************************************************************************/
void init_ios(void)
{	/* Configure input pins */
     9c6:	0f 93       	push	r16
	io_pin2in(&PORTA, 4, PULL_IO_UP, SENSE_IO_EDGES_BOTH);               // CARD_PRESENT
     9c8:	20 e0       	ldi	r18, 0x00	; 0
     9ca:	48 e1       	ldi	r20, 0x18	; 24
     9cc:	64 e0       	ldi	r22, 0x04	; 4
     9ce:	80 e0       	ldi	r24, 0x00	; 0
     9d0:	96 e0       	ldi	r25, 0x06	; 6
     9d2:	0e 94 72 06 	call	0xce4	; 0xce4 <io_pin2in>
	io_pin2in(&PORTC, 3, PULL_IO_TRISTATE, SENSE_IO_EDGES_BOTH);         // TAG_IN_RANGE
     9d6:	20 e0       	ldi	r18, 0x00	; 0
     9d8:	40 e0       	ldi	r20, 0x00	; 0
     9da:	63 e0       	ldi	r22, 0x03	; 3
     9dc:	80 e4       	ldi	r24, 0x40	; 64
     9de:	96 e0       	ldi	r25, 0x06	; 6
     9e0:	0e 94 72 06 	call	0xce4	; 0xce4 <io_pin2in>

	/* Configure input interrupts */
	io_set_int(&PORTA, INT_LEVEL_LOW, 0, (1<<4), false);                 // CARD_PRESENT
     9e4:	00 e0       	ldi	r16, 0x00	; 0
     9e6:	20 e1       	ldi	r18, 0x10	; 16
     9e8:	40 e0       	ldi	r20, 0x00	; 0
     9ea:	61 e0       	ldi	r22, 0x01	; 1
     9ec:	80 e0       	ldi	r24, 0x00	; 0
     9ee:	96 e0       	ldi	r25, 0x06	; 6
     9f0:	0e 94 9f 06 	call	0xd3e	; 0xd3e <io_set_int>
	io_set_int(&PORTC, INT_LEVEL_LOW, 0, (1<<3), false);                 // TAG_IN_RANGE
     9f4:	28 e0       	ldi	r18, 0x08	; 8
     9f6:	40 e0       	ldi	r20, 0x00	; 0
     9f8:	61 e0       	ldi	r22, 0x01	; 1
     9fa:	80 e4       	ldi	r24, 0x40	; 64
     9fc:	96 e0       	ldi	r25, 0x06	; 6
     9fe:	0e 94 9f 06 	call	0xd3e	; 0xd3e <io_set_int>

	/* Configure output pins */
	io_pin2out(&PORTD, 0, OUT_IO_DIGITAL, IN_EN_IO_EN);                  // BUZZER
     a02:	21 e0       	ldi	r18, 0x01	; 1
     a04:	40 e0       	ldi	r20, 0x00	; 0
     a06:	60 e0       	ldi	r22, 0x00	; 0
     a08:	80 e6       	ldi	r24, 0x60	; 96
     a0a:	96 e0       	ldi	r25, 0x06	; 6
     a0c:	0e 94 87 06 	call	0xd0e	; 0xd0e <io_pin2out>
	io_pin2out(&PORTD, 4, OUT_IO_DIGITAL, IN_EN_IO_EN);                  // LED_DETECT_TOP
     a10:	21 e0       	ldi	r18, 0x01	; 1
     a12:	40 e0       	ldi	r20, 0x00	; 0
     a14:	64 e0       	ldi	r22, 0x04	; 4
     a16:	80 e6       	ldi	r24, 0x60	; 96
     a18:	96 e0       	ldi	r25, 0x06	; 6
     a1a:	0e 94 87 06 	call	0xd0e	; 0xd0e <io_pin2out>
	io_pin2out(&PORTC, 2, OUT_IO_DIGITAL, IN_EN_IO_EN);                  // LED_DETECT_BOTTOM
     a1e:	21 e0       	ldi	r18, 0x01	; 1
     a20:	40 e0       	ldi	r20, 0x00	; 0
     a22:	62 e0       	ldi	r22, 0x02	; 2
     a24:	80 e4       	ldi	r24, 0x40	; 64
     a26:	96 e0       	ldi	r25, 0x06	; 6
     a28:	0e 94 87 06 	call	0xd0e	; 0xd0e <io_pin2out>

	/* Initialize output pins */
	clr_BUZZER;
     a2c:	e0 e6       	ldi	r30, 0x60	; 96
     a2e:	f6 e0       	ldi	r31, 0x06	; 6
     a30:	81 e0       	ldi	r24, 0x01	; 1
     a32:	86 83       	std	Z+6, r24	; 0x06
	clr_LED_DETECT_TOP;
     a34:	80 e1       	ldi	r24, 0x10	; 16
     a36:	86 83       	std	Z+6, r24	; 0x06
	clr_LED_DETECT_BOTTOM;
     a38:	84 e0       	ldi	r24, 0x04	; 4
     a3a:	80 93 46 06 	sts	0x0646, r24	; 0x800646 <__TEXT_REGION_LENGTH__+0x700646>
}
     a3e:	0f 91       	pop	r16
     a40:	08 95       	ret

00000a42 <__vector_66>:
/************************************************************************/ 
/* CARD_PRESENT                                                         */
/************************************************************************/
ISR(PORTA_INT0_vect, ISR_NAKED)
{
	reti();
     a42:	18 95       	reti

00000a44 <__vector_2>:
/************************************************************************/ 
/* TAG_IN_RANGE                                                         */
/************************************************************************/
ISR(PORTC_INT0_vect, ISR_NAKED)
{
	reti();
     a44:	18 95       	reti

00000a46 <__vector_83>:
/************************************************************************/
extern uint8_t rxbuff_pointer;

ISR(TCD1_OVF_vect, ISR_NAKED)
{
	rxbuff_pointer = 0;
     a46:	10 92 04 21 	sts	0x2104, r1	; 0x802104 <rxbuff_pointer>
	timer_type0_stop(&TCC0);
     a4a:	80 e0       	ldi	r24, 0x00	; 0
     a4c:	98 e0       	ldi	r25, 0x08	; 8
     a4e:	0e 94 f4 06 	call	0xde8	; 0xde8 <timer_type0_stop>
	
	reti();
     a52:	18 95       	reti

00000a54 <__vector_14>:
/* Buzzer                                                               */
/************************************************************************/
extern bool stop_buzzer;
ISR(TCC0_OVF_vect, ISR_NAKED)
{
	set_BUZZER;
     a54:	81 e0       	ldi	r24, 0x01	; 1
     a56:	80 93 65 06 	sts	0x0665, r24	; 0x800665 <__TEXT_REGION_LENGTH__+0x700665>
	
	reti();
     a5a:	18 95       	reti

00000a5c <__vector_16>:
}

ISR(TCC0_CCA_vect, ISR_NAKED)
{
	clr_BUZZER;
     a5c:	81 e0       	ldi	r24, 0x01	; 1
     a5e:	80 93 66 06 	sts	0x0666, r24	; 0x800666 <__TEXT_REGION_LENGTH__+0x700666>
	
	if (stop_buzzer == true)
     a62:	c0 91 73 21 	lds	r28, 0x2173	; 0x802173 <stop_buzzer>
     a66:	c1 30       	cpi	r28, 0x01	; 1
     a68:	31 f4       	brne	.+12     	; 0xa76 <__vector_16+0x1a>
	{
		timer_type0_stop(&TCC0);
     a6a:	80 e0       	ldi	r24, 0x00	; 0
     a6c:	98 e0       	ldi	r25, 0x08	; 8
     a6e:	0e 94 f4 06 	call	0xde8	; 0xde8 <timer_type0_stop>
		clr_BUZZER;
     a72:	c0 93 66 06 	sts	0x0666, r28	; 0x800666 <__TEXT_REGION_LENGTH__+0x700666>
	}
	
	reti();
     a76:	18 95       	reti

00000a78 <main>:
#include "app_ios_and_regs.h"

int main(void)
{
	/* Initialize device */
	hwbp_app_initialize();
     a78:	0e 94 1d 01 	call	0x23a	; 0x23a <hwbp_app_initialize>

	/* Enable interrupts */
	hwbp_app_enable_interrupts;
     a7c:	80 91 a2 00 	lds	r24, 0x00A2	; 0x8000a2 <__TEXT_REGION_LENGTH__+0x7000a2>
     a80:	87 68       	ori	r24, 0x87	; 135
     a82:	80 93 a2 00 	sts	0x00A2, r24	; 0x8000a2 <__TEXT_REGION_LENGTH__+0x7000a2>
     a86:	78 94       	sei
     a88:	ff cf       	rjmp	.-2      	; 0xa88 <main+0x10>

00000a8a <__vector_89>:
	uint8_t uart_state = read_io(UART0_RTS_PORT, UART0_RTS_pin) ? true : false;

	if (UART0_UART.STATUS & USART_RXCIF_bm)
	{
		*byte = UART0_UART.DATA;
		return true;
     a8a:	80 e4       	ldi	r24, 0x40	; 64
     a8c:	80 93 65 06 	sts	0x0665, r24	; 0x800665 <__TEXT_REGION_LENGTH__+0x700665>
     a90:	e0 91 06 21 	lds	r30, 0x2106	; 0x802106 <uart0_tail>
     a94:	81 e0       	ldi	r24, 0x01	; 1
     a96:	8e 0f       	add	r24, r30
     a98:	80 93 06 21 	sts	0x2106, r24	; 0x802106 <uart0_tail>
     a9c:	f0 e0       	ldi	r31, 0x00	; 0
     a9e:	ef 50       	subi	r30, 0x0F	; 15
     aa0:	fe 4d       	sbci	r31, 0xDE	; 222
     aa2:	90 81       	ld	r25, Z
     aa4:	90 93 a0 09 	sts	0x09A0, r25	; 0x8009a0 <__TEXT_REGION_LENGTH__+0x7009a0>
     aa8:	88 30       	cpi	r24, 0x08	; 8
     aaa:	19 f4       	brne	.+6      	; 0xab2 <__vector_89+0x28>
     aac:	10 92 06 21 	sts	0x2106, r1	; 0x802106 <uart0_tail>
     ab0:	80 e0       	ldi	r24, 0x00	; 0
     ab2:	90 91 05 21 	lds	r25, 0x2105	; 0x802105 <uart0_head>
     ab6:	98 13       	cpse	r25, r24
     ab8:	05 c0       	rjmp	.+10     	; 0xac4 <__vector_89+0x3a>
     aba:	80 91 a3 09 	lds	r24, 0x09A3	; 0x8009a3 <__TEXT_REGION_LENGTH__+0x7009a3>
     abe:	8c 7f       	andi	r24, 0xFC	; 252
     ac0:	80 93 a3 09 	sts	0x09A3, r24	; 0x8009a3 <__TEXT_REGION_LENGTH__+0x7009a3>
     ac4:	80 e4       	ldi	r24, 0x40	; 64
     ac6:	80 93 66 06 	sts	0x0666, r24	; 0x800666 <__TEXT_REGION_LENGTH__+0x700666>
     aca:	18 95       	reti

00000acc <__vector_64>:
     acc:	80 91 68 06 	lds	r24, 0x0668	; 0x800668 <__TEXT_REGION_LENGTH__+0x700668>
     ad0:	87 ff       	sbrs	r24, 7
     ad2:	06 c0       	rjmp	.+12     	; 0xae0 <__vector_64+0x14>
     ad4:	80 91 a3 09 	lds	r24, 0x09A3	; 0x8009a3 <__TEXT_REGION_LENGTH__+0x7009a3>
     ad8:	8c 7f       	andi	r24, 0xFC	; 252
     ada:	80 93 a3 09 	sts	0x09A3, r24	; 0x8009a3 <__TEXT_REGION_LENGTH__+0x7009a3>
     ade:	0b c0       	rjmp	.+22     	; 0xaf6 <__vector_64+0x2a>
     ae0:	90 91 06 21 	lds	r25, 0x2106	; 0x802106 <uart0_tail>
     ae4:	80 91 05 21 	lds	r24, 0x2105	; 0x802105 <uart0_head>
     ae8:	98 17       	cp	r25, r24
     aea:	29 f0       	breq	.+10     	; 0xaf6 <__vector_64+0x2a>
     aec:	80 91 a3 09 	lds	r24, 0x09A3	; 0x8009a3 <__TEXT_REGION_LENGTH__+0x7009a3>
     af0:	81 60       	ori	r24, 0x01	; 1
     af2:	80 93 a3 09 	sts	0x09A3, r24	; 0x8009a3 <__TEXT_REGION_LENGTH__+0x7009a3>
     af6:	18 95       	reti

00000af8 <__vector_88>:
extern uint8_t rx[];

UART0_RX_ROUTINE_
{
	//disable_uart0_rx;
	uart0_rcv_byte_callback(UART0_DATA);
     af8:	80 91 a0 09 	lds	r24, 0x09A0	; 0x8009a0 <__TEXT_REGION_LENGTH__+0x7009a0>
     afc:	0e 94 f1 01 	call	0x3e2	; 0x3e2 <uart0_rcv_byte_callback>
	//enable_uart0_rx;
	uart0_leave_interrupt;
     b00:	18 95       	reti

00000b02 <__floatunsisf>:
     b02:	e8 94       	clt
     b04:	09 c0       	rjmp	.+18     	; 0xb18 <__floatsisf+0x12>

00000b06 <__floatsisf>:
     b06:	97 fb       	bst	r25, 7
     b08:	3e f4       	brtc	.+14     	; 0xb18 <__floatsisf+0x12>
     b0a:	90 95       	com	r25
     b0c:	80 95       	com	r24
     b0e:	70 95       	com	r23
     b10:	61 95       	neg	r22
     b12:	7f 4f       	sbci	r23, 0xFF	; 255
     b14:	8f 4f       	sbci	r24, 0xFF	; 255
     b16:	9f 4f       	sbci	r25, 0xFF	; 255
     b18:	99 23       	and	r25, r25
     b1a:	a9 f0       	breq	.+42     	; 0xb46 <__floatsisf+0x40>
     b1c:	f9 2f       	mov	r31, r25
     b1e:	96 e9       	ldi	r25, 0x96	; 150
     b20:	bb 27       	eor	r27, r27
     b22:	93 95       	inc	r25
     b24:	f6 95       	lsr	r31
     b26:	87 95       	ror	r24
     b28:	77 95       	ror	r23
     b2a:	67 95       	ror	r22
     b2c:	b7 95       	ror	r27
     b2e:	f1 11       	cpse	r31, r1
     b30:	f8 cf       	rjmp	.-16     	; 0xb22 <__floatsisf+0x1c>
     b32:	fa f4       	brpl	.+62     	; 0xb72 <__floatsisf+0x6c>
     b34:	bb 0f       	add	r27, r27
     b36:	11 f4       	brne	.+4      	; 0xb3c <__floatsisf+0x36>
     b38:	60 ff       	sbrs	r22, 0
     b3a:	1b c0       	rjmp	.+54     	; 0xb72 <__floatsisf+0x6c>
     b3c:	6f 5f       	subi	r22, 0xFF	; 255
     b3e:	7f 4f       	sbci	r23, 0xFF	; 255
     b40:	8f 4f       	sbci	r24, 0xFF	; 255
     b42:	9f 4f       	sbci	r25, 0xFF	; 255
     b44:	16 c0       	rjmp	.+44     	; 0xb72 <__floatsisf+0x6c>
     b46:	88 23       	and	r24, r24
     b48:	11 f0       	breq	.+4      	; 0xb4e <__floatsisf+0x48>
     b4a:	96 e9       	ldi	r25, 0x96	; 150
     b4c:	11 c0       	rjmp	.+34     	; 0xb70 <__floatsisf+0x6a>
     b4e:	77 23       	and	r23, r23
     b50:	21 f0       	breq	.+8      	; 0xb5a <__floatsisf+0x54>
     b52:	9e e8       	ldi	r25, 0x8E	; 142
     b54:	87 2f       	mov	r24, r23
     b56:	76 2f       	mov	r23, r22
     b58:	05 c0       	rjmp	.+10     	; 0xb64 <__floatsisf+0x5e>
     b5a:	66 23       	and	r22, r22
     b5c:	71 f0       	breq	.+28     	; 0xb7a <__floatsisf+0x74>
     b5e:	96 e8       	ldi	r25, 0x86	; 134
     b60:	86 2f       	mov	r24, r22
     b62:	70 e0       	ldi	r23, 0x00	; 0
     b64:	60 e0       	ldi	r22, 0x00	; 0
     b66:	2a f0       	brmi	.+10     	; 0xb72 <__floatsisf+0x6c>
     b68:	9a 95       	dec	r25
     b6a:	66 0f       	add	r22, r22
     b6c:	77 1f       	adc	r23, r23
     b6e:	88 1f       	adc	r24, r24
     b70:	da f7       	brpl	.-10     	; 0xb68 <__floatsisf+0x62>
     b72:	88 0f       	add	r24, r24
     b74:	96 95       	lsr	r25
     b76:	87 95       	ror	r24
     b78:	97 f9       	bld	r25, 7
     b7a:	08 95       	ret

00000b7c <cpu_config_clock>:
     b7c:	22 23       	and	r18, r18
     b7e:	09 f4       	brne	.+2      	; 0xb82 <cpu_config_clock+0x6>
     b80:	5b c0       	rjmp	.+182    	; 0xc38 <cpu_config_clock+0xbc>
     b82:	30 e2       	ldi	r19, 0x20	; 32
     b84:	30 93 52 00 	sts	0x0052, r19	; 0x800052 <__TEXT_REGION_LENGTH__+0x700052>
     b88:	38 e0       	ldi	r19, 0x08	; 8
     b8a:	30 93 50 00 	sts	0x0050, r19	; 0x800050 <__TEXT_REGION_LENGTH__+0x700050>
     b8e:	30 91 51 00 	lds	r19, 0x0051	; 0x800051 <__TEXT_REGION_LENGTH__+0x700051>
     b92:	33 ff       	sbrs	r19, 3
     b94:	fc cf       	rjmp	.-8      	; 0xb8e <cpu_config_clock+0x12>
     b96:	61 15       	cp	r22, r1
     b98:	38 e4       	ldi	r19, 0x48	; 72
     b9a:	73 07       	cpc	r23, r19
     b9c:	38 ee       	ldi	r19, 0xE8	; 232
     b9e:	83 07       	cpc	r24, r19
     ba0:	31 e0       	ldi	r19, 0x01	; 1
     ba2:	93 07       	cpc	r25, r19
     ba4:	09 f4       	brne	.+2      	; 0xba8 <cpu_config_clock+0x2c>
     ba6:	82 c0       	rjmp	.+260    	; 0xcac <cpu_config_clock+0x130>
     ba8:	61 15       	cp	r22, r1
     baa:	34 e2       	ldi	r19, 0x24	; 36
     bac:	73 07       	cpc	r23, r19
     bae:	34 ef       	ldi	r19, 0xF4	; 244
     bb0:	83 07       	cpc	r24, r19
     bb2:	91 05       	cpc	r25, r1
     bb4:	09 f4       	brne	.+2      	; 0xbb8 <cpu_config_clock+0x3c>
     bb6:	7c c0       	rjmp	.+248    	; 0xcb0 <cpu_config_clock+0x134>
     bb8:	61 15       	cp	r22, r1
     bba:	32 e1       	ldi	r19, 0x12	; 18
     bbc:	73 07       	cpc	r23, r19
     bbe:	3a e7       	ldi	r19, 0x7A	; 122
     bc0:	83 07       	cpc	r24, r19
     bc2:	91 05       	cpc	r25, r1
     bc4:	09 f4       	brne	.+2      	; 0xbc8 <cpu_config_clock+0x4c>
     bc6:	4b c0       	rjmp	.+150    	; 0xc5e <cpu_config_clock+0xe2>
     bc8:	61 15       	cp	r22, r1
     bca:	39 e0       	ldi	r19, 0x09	; 9
     bcc:	73 07       	cpc	r23, r19
     bce:	3d e3       	ldi	r19, 0x3D	; 61
     bd0:	83 07       	cpc	r24, r19
     bd2:	91 05       	cpc	r25, r1
     bd4:	09 f4       	brne	.+2      	; 0xbd8 <cpu_config_clock+0x5c>
     bd6:	6e c0       	rjmp	.+220    	; 0xcb4 <cpu_config_clock+0x138>
     bd8:	60 38       	cpi	r22, 0x80	; 128
     bda:	34 e8       	ldi	r19, 0x84	; 132
     bdc:	73 07       	cpc	r23, r19
     bde:	3e e1       	ldi	r19, 0x1E	; 30
     be0:	83 07       	cpc	r24, r19
     be2:	91 05       	cpc	r25, r1
     be4:	09 f4       	brne	.+2      	; 0xbe8 <cpu_config_clock+0x6c>
     be6:	60 c0       	rjmp	.+192    	; 0xca8 <cpu_config_clock+0x12c>
     be8:	60 34       	cpi	r22, 0x40	; 64
     bea:	32 e4       	ldi	r19, 0x42	; 66
     bec:	73 07       	cpc	r23, r19
     bee:	3f e0       	ldi	r19, 0x0F	; 15
     bf0:	83 07       	cpc	r24, r19
     bf2:	91 05       	cpc	r25, r1
     bf4:	09 f4       	brne	.+2      	; 0xbf8 <cpu_config_clock+0x7c>
     bf6:	62 c0       	rjmp	.+196    	; 0xcbc <cpu_config_clock+0x140>
     bf8:	60 32       	cpi	r22, 0x20	; 32
     bfa:	31 ea       	ldi	r19, 0xA1	; 161
     bfc:	73 07       	cpc	r23, r19
     bfe:	37 e0       	ldi	r19, 0x07	; 7
     c00:	83 07       	cpc	r24, r19
     c02:	91 05       	cpc	r25, r1
     c04:	09 f4       	brne	.+2      	; 0xc08 <cpu_config_clock+0x8c>
     c06:	58 c0       	rjmp	.+176    	; 0xcb8 <cpu_config_clock+0x13c>
     c08:	60 39       	cpi	r22, 0x90	; 144
     c0a:	30 ed       	ldi	r19, 0xD0	; 208
     c0c:	73 07       	cpc	r23, r19
     c0e:	33 e0       	ldi	r19, 0x03	; 3
     c10:	83 07       	cpc	r24, r19
     c12:	91 05       	cpc	r25, r1
     c14:	09 f4       	brne	.+2      	; 0xc18 <cpu_config_clock+0x9c>
     c16:	54 c0       	rjmp	.+168    	; 0xcc0 <cpu_config_clock+0x144>
     c18:	68 34       	cpi	r22, 0x48	; 72
     c1a:	38 ee       	ldi	r19, 0xE8	; 232
     c1c:	73 07       	cpc	r23, r19
     c1e:	31 e0       	ldi	r19, 0x01	; 1
     c20:	83 07       	cpc	r24, r19
     c22:	91 05       	cpc	r25, r1
     c24:	09 f4       	brne	.+2      	; 0xc28 <cpu_config_clock+0xac>
     c26:	4e c0       	rjmp	.+156    	; 0xcc4 <cpu_config_clock+0x148>
     c28:	64 32       	cpi	r22, 0x24	; 36
     c2a:	74 4f       	sbci	r23, 0xF4	; 244
     c2c:	81 05       	cpc	r24, r1
     c2e:	91 05       	cpc	r25, r1
     c30:	09 f0       	breq	.+2      	; 0xc34 <cpu_config_clock+0xb8>
     c32:	4a c0       	rjmp	.+148    	; 0xcc8 <cpu_config_clock+0x14c>
     c34:	84 e4       	ldi	r24, 0x44	; 68
     c36:	14 c0       	rjmp	.+40     	; 0xc60 <cpu_config_clock+0xe4>
     c38:	32 e2       	ldi	r19, 0x22	; 34
     c3a:	30 93 52 00 	sts	0x0052, r19	; 0x800052 <__TEXT_REGION_LENGTH__+0x700052>
     c3e:	3a e0       	ldi	r19, 0x0A	; 10
     c40:	30 93 50 00 	sts	0x0050, r19	; 0x800050 <__TEXT_REGION_LENGTH__+0x700050>
     c44:	30 91 51 00 	lds	r19, 0x0051	; 0x800051 <__TEXT_REGION_LENGTH__+0x700051>
     c48:	31 ff       	sbrs	r19, 1
     c4a:	fc cf       	rjmp	.-8      	; 0xc44 <cpu_config_clock+0xc8>
     c4c:	30 91 51 00 	lds	r19, 0x0051	; 0x800051 <__TEXT_REGION_LENGTH__+0x700051>
     c50:	33 fd       	sbrc	r19, 3
     c52:	a1 cf       	rjmp	.-190    	; 0xb96 <cpu_config_clock+0x1a>
     c54:	30 91 51 00 	lds	r19, 0x0051	; 0x800051 <__TEXT_REGION_LENGTH__+0x700051>
     c58:	33 ff       	sbrs	r19, 3
     c5a:	f8 cf       	rjmp	.-16     	; 0xc4c <cpu_config_clock+0xd0>
     c5c:	9c cf       	rjmp	.-200    	; 0xb96 <cpu_config_clock+0x1a>
     c5e:	8c e0       	ldi	r24, 0x0C	; 12
     c60:	98 ed       	ldi	r25, 0xD8	; 216
     c62:	94 bf       	out	0x34, r25	; 52
     c64:	22 23       	and	r18, r18
     c66:	99 f0       	breq	.+38     	; 0xc8e <cpu_config_clock+0x112>
     c68:	23 e0       	ldi	r18, 0x03	; 3
     c6a:	20 93 40 00 	sts	0x0040, r18	; 0x800040 <__TEXT_REGION_LENGTH__+0x700040>
     c6e:	94 bf       	out	0x34, r25	; 52
     c70:	80 93 41 00 	sts	0x0041, r24	; 0x800041 <__TEXT_REGION_LENGTH__+0x700041>
     c74:	44 23       	and	r20, r20
     c76:	29 f0       	breq	.+10     	; 0xc82 <cpu_config_clock+0x106>
     c78:	88 ed       	ldi	r24, 0xD8	; 216
     c7a:	84 bf       	out	0x34, r24	; 52
     c7c:	81 e0       	ldi	r24, 0x01	; 1
     c7e:	80 93 42 00 	sts	0x0042, r24	; 0x800042 <__TEXT_REGION_LENGTH__+0x700042>
     c82:	88 ed       	ldi	r24, 0xD8	; 216
     c84:	84 bf       	out	0x34, r24	; 52
     c86:	81 e0       	ldi	r24, 0x01	; 1
     c88:	80 93 80 00 	sts	0x0080, r24	; 0x800080 <__TEXT_REGION_LENGTH__+0x700080>
     c8c:	08 95       	ret
     c8e:	21 e0       	ldi	r18, 0x01	; 1
     c90:	20 93 40 00 	sts	0x0040, r18	; 0x800040 <__TEXT_REGION_LENGTH__+0x700040>
     c94:	94 bf       	out	0x34, r25	; 52
     c96:	80 93 41 00 	sts	0x0041, r24	; 0x800041 <__TEXT_REGION_LENGTH__+0x700041>
     c9a:	94 bf       	out	0x34, r25	; 52
     c9c:	82 e0       	ldi	r24, 0x02	; 2
     c9e:	80 93 56 00 	sts	0x0056, r24	; 0x800056 <__TEXT_REGION_LENGTH__+0x700056>
     ca2:	20 93 60 00 	sts	0x0060, r18	; 0x800060 <__TEXT_REGION_LENGTH__+0x700060>
     ca6:	e6 cf       	rjmp	.-52     	; 0xc74 <cpu_config_clock+0xf8>
     ca8:	8c e1       	ldi	r24, 0x1C	; 28
     caa:	da cf       	rjmp	.-76     	; 0xc60 <cpu_config_clock+0xe4>
     cac:	80 e0       	ldi	r24, 0x00	; 0
     cae:	d8 cf       	rjmp	.-80     	; 0xc60 <cpu_config_clock+0xe4>
     cb0:	84 e0       	ldi	r24, 0x04	; 4
     cb2:	d6 cf       	rjmp	.-84     	; 0xc60 <cpu_config_clock+0xe4>
     cb4:	84 e1       	ldi	r24, 0x14	; 20
     cb6:	d4 cf       	rjmp	.-88     	; 0xc60 <cpu_config_clock+0xe4>
     cb8:	8c e2       	ldi	r24, 0x2C	; 44
     cba:	d2 cf       	rjmp	.-92     	; 0xc60 <cpu_config_clock+0xe4>
     cbc:	84 e2       	ldi	r24, 0x24	; 36
     cbe:	d0 cf       	rjmp	.-96     	; 0xc60 <cpu_config_clock+0xe4>
     cc0:	84 e3       	ldi	r24, 0x34	; 52
     cc2:	ce cf       	rjmp	.-100    	; 0xc60 <cpu_config_clock+0xe4>
     cc4:	8c e3       	ldi	r24, 0x3C	; 60
     cc6:	cc cf       	rjmp	.-104    	; 0xc60 <cpu_config_clock+0xe4>
     cc8:	80 e0       	ldi	r24, 0x00	; 0
     cca:	08 95       	ret

00000ccc <wdt_disable>:
     ccc:	88 ed       	ldi	r24, 0xD8	; 216
     cce:	84 bf       	out	0x34, r24	; 52
     cd0:	81 e0       	ldi	r24, 0x01	; 1
     cd2:	80 93 80 00 	sts	0x0080, r24	; 0x800080 <__TEXT_REGION_LENGTH__+0x700080>
     cd6:	08 95       	ret

00000cd8 <wdt_reset_device>:
     cd8:	88 ed       	ldi	r24, 0xD8	; 216
     cda:	84 bf       	out	0x34, r24	; 52
     cdc:	83 e0       	ldi	r24, 0x03	; 3
     cde:	80 93 80 00 	sts	0x0080, r24	; 0x800080 <__TEXT_REGION_LENGTH__+0x700080>
     ce2:	ff cf       	rjmp	.-2      	; 0xce2 <wdt_reset_device+0xa>

00000ce4 <io_pin2in>:
     ce4:	fc 01       	movw	r30, r24
     ce6:	30 81       	ld	r19, Z
     ce8:	81 e0       	ldi	r24, 0x01	; 1
     cea:	90 e0       	ldi	r25, 0x00	; 0
     cec:	06 2e       	mov	r0, r22
     cee:	01 c0       	rjmp	.+2      	; 0xcf2 <io_pin2in+0xe>
     cf0:	88 0f       	add	r24, r24
     cf2:	0a 94       	dec	r0
     cf4:	ea f7       	brpl	.-6      	; 0xcf0 <io_pin2in+0xc>
     cf6:	80 95       	com	r24
     cf8:	83 23       	and	r24, r19
     cfa:	80 83       	st	Z, r24
     cfc:	70 96       	adiw	r30, 0x10	; 16
     cfe:	e6 0f       	add	r30, r22
     d00:	f1 1d       	adc	r31, r1
     d02:	80 81       	ld	r24, Z
     d04:	42 2b       	or	r20, r18
     d06:	80 7c       	andi	r24, 0xC0	; 192
     d08:	48 2b       	or	r20, r24
     d0a:	40 83       	st	Z, r20
     d0c:	08 95       	ret

00000d0e <io_pin2out>:
     d0e:	fc 01       	movw	r30, r24
     d10:	30 81       	ld	r19, Z
     d12:	81 e0       	ldi	r24, 0x01	; 1
     d14:	90 e0       	ldi	r25, 0x00	; 0
     d16:	06 2e       	mov	r0, r22
     d18:	01 c0       	rjmp	.+2      	; 0xd1c <io_pin2out+0xe>
     d1a:	88 0f       	add	r24, r24
     d1c:	0a 94       	dec	r0
     d1e:	ea f7       	brpl	.-6      	; 0xd1a <io_pin2out+0xc>
     d20:	38 2b       	or	r19, r24
     d22:	30 83       	st	Z, r19
     d24:	70 96       	adiw	r30, 0x10	; 16
     d26:	e6 0f       	add	r30, r22
     d28:	f1 1d       	adc	r31, r1
     d2a:	80 81       	ld	r24, Z
     d2c:	80 7c       	andi	r24, 0xC0	; 192
     d2e:	84 2b       	or	r24, r20
     d30:	80 83       	st	Z, r24
     d32:	21 11       	cpse	r18, r1
     d34:	03 c0       	rjmp	.+6      	; 0xd3c <io_pin2out+0x2e>
     d36:	80 81       	ld	r24, Z
     d38:	87 60       	ori	r24, 0x07	; 7
     d3a:	80 83       	st	Z, r24
     d3c:	08 95       	ret

00000d3e <io_set_int>:
     d3e:	0f 93       	push	r16
     d40:	fc 01       	movw	r30, r24
     d42:	31 85       	ldd	r19, Z+9	; 0x09
     d44:	84 2f       	mov	r24, r20
     d46:	90 e0       	ldi	r25, 0x00	; 0
     d48:	88 0f       	add	r24, r24
     d4a:	99 1f       	adc	r25, r25
     d4c:	a3 e0       	ldi	r26, 0x03	; 3
     d4e:	b0 e0       	ldi	r27, 0x00	; 0
     d50:	08 2e       	mov	r0, r24
     d52:	01 c0       	rjmp	.+2      	; 0xd56 <io_set_int+0x18>
     d54:	aa 0f       	add	r26, r26
     d56:	0a 94       	dec	r0
     d58:	ea f7       	brpl	.-6      	; 0xd54 <io_set_int+0x16>
     d5a:	a0 95       	com	r26
     d5c:	a3 23       	and	r26, r19
     d5e:	08 2e       	mov	r0, r24
     d60:	01 c0       	rjmp	.+2      	; 0xd64 <io_set_int+0x26>
     d62:	66 0f       	add	r22, r22
     d64:	0a 94       	dec	r0
     d66:	ea f7       	brpl	.-6      	; 0xd62 <io_set_int+0x24>
     d68:	a6 2b       	or	r26, r22
     d6a:	a1 87       	std	Z+9, r26	; 0x09
     d6c:	41 11       	cpse	r20, r1
     d6e:	0f c0       	rjmp	.+30     	; 0xd8e <io_set_int+0x50>
     d70:	00 23       	and	r16, r16
     d72:	a9 f0       	breq	.+42     	; 0xd9e <io_set_int+0x60>
     d74:	22 87       	std	Z+10, r18	; 0x0a
     d76:	24 85       	ldd	r18, Z+12	; 0x0c
     d78:	81 e0       	ldi	r24, 0x01	; 1
     d7a:	90 e0       	ldi	r25, 0x00	; 0
     d7c:	04 2e       	mov	r0, r20
     d7e:	01 c0       	rjmp	.+2      	; 0xd82 <io_set_int+0x44>
     d80:	88 0f       	add	r24, r24
     d82:	0a 94       	dec	r0
     d84:	ea f7       	brpl	.-6      	; 0xd80 <io_set_int+0x42>
     d86:	28 2b       	or	r18, r24
     d88:	24 87       	std	Z+12, r18	; 0x0c
     d8a:	0f 91       	pop	r16
     d8c:	08 95       	ret
     d8e:	41 30       	cpi	r20, 0x01	; 1
     d90:	91 f7       	brne	.-28     	; 0xd76 <io_set_int+0x38>
     d92:	01 11       	cpse	r16, r1
     d94:	08 c0       	rjmp	.+16     	; 0xda6 <io_set_int+0x68>
     d96:	83 85       	ldd	r24, Z+11	; 0x0b
     d98:	82 2b       	or	r24, r18
     d9a:	83 87       	std	Z+11, r24	; 0x0b
     d9c:	ec cf       	rjmp	.-40     	; 0xd76 <io_set_int+0x38>
     d9e:	82 85       	ldd	r24, Z+10	; 0x0a
     da0:	82 2b       	or	r24, r18
     da2:	82 87       	std	Z+10, r24	; 0x0a
     da4:	e8 cf       	rjmp	.-48     	; 0xd76 <io_set_int+0x38>
     da6:	23 87       	std	Z+11, r18	; 0x0b
     da8:	e6 cf       	rjmp	.-52     	; 0xd76 <io_set_int+0x38>

00000daa <timer_type0_enable>:
     daa:	fc 01       	movw	r30, r24
     dac:	10 82       	st	Z, r1
     dae:	8c e0       	ldi	r24, 0x0C	; 12
     db0:	81 87       	std	Z+9, r24	; 0x09
     db2:	41 50       	subi	r20, 0x01	; 1
     db4:	51 09       	sbc	r21, r1
     db6:	46 a3       	std	Z+38, r20	; 0x26
     db8:	57 a3       	std	Z+39, r21	; 0x27
     dba:	26 83       	std	Z+6, r18	; 0x06
     dbc:	60 83       	st	Z, r22
     dbe:	08 95       	ret

00000dc0 <timer_type0_pwm>:
     dc0:	ef 92       	push	r14
     dc2:	0f 93       	push	r16
     dc4:	fc 01       	movw	r30, r24
     dc6:	10 82       	st	Z, r1
     dc8:	8c e0       	ldi	r24, 0x0C	; 12
     dca:	81 87       	std	Z+9, r24	; 0x09
     dcc:	41 50       	subi	r20, 0x01	; 1
     dce:	51 09       	sbc	r21, r1
     dd0:	46 a3       	std	Z+38, r20	; 0x26
     dd2:	57 a3       	std	Z+39, r21	; 0x27
     dd4:	20 a7       	std	Z+40, r18	; 0x28
     dd6:	31 a7       	std	Z+41, r19	; 0x29
     dd8:	06 83       	std	Z+6, r16	; 0x06
     dda:	e7 82       	std	Z+7, r14	; 0x07
     ddc:	83 e1       	ldi	r24, 0x13	; 19
     dde:	81 83       	std	Z+1, r24	; 0x01
     de0:	60 83       	st	Z, r22
     de2:	0f 91       	pop	r16
     de4:	ef 90       	pop	r14
     de6:	08 95       	ret

00000de8 <timer_type0_stop>:
     de8:	fc 01       	movw	r30, r24
     dea:	10 82       	st	Z, r1
     dec:	2c e0       	ldi	r18, 0x0C	; 12
     dee:	21 87       	std	Z+9, r18	; 0x09
     df0:	08 95       	ret

00000df2 <calculate_timer_16bits>:
     df2:	4f 92       	push	r4
     df4:	5f 92       	push	r5
     df6:	6f 92       	push	r6
     df8:	7f 92       	push	r7
     dfa:	8f 92       	push	r8
     dfc:	9f 92       	push	r9
     dfe:	af 92       	push	r10
     e00:	bf 92       	push	r11
     e02:	ef 92       	push	r14
     e04:	ff 92       	push	r15
     e06:	0f 93       	push	r16
     e08:	1f 93       	push	r17
     e0a:	2b 01       	movw	r4, r22
     e0c:	3c 01       	movw	r6, r24
     e0e:	49 01       	movw	r8, r18
     e10:	5a 01       	movw	r10, r20
     e12:	20 e0       	ldi	r18, 0x00	; 0
     e14:	30 e0       	ldi	r19, 0x00	; 0
     e16:	a9 01       	movw	r20, r18
     e18:	c5 01       	movw	r24, r10
     e1a:	b4 01       	movw	r22, r8
     e1c:	0e 94 e9 12 	call	0x25d2	; 0x25d2 <__cmpsf2>
     e20:	88 23       	and	r24, r24
     e22:	09 f4       	brne	.+2      	; 0xe26 <calculate_timer_16bits+0x34>
     e24:	42 c0       	rjmp	.+132    	; 0xeaa <calculate_timer_16bits+0xb8>
     e26:	c3 01       	movw	r24, r6
     e28:	b2 01       	movw	r22, r4
     e2a:	0e 94 81 05 	call	0xb02	; 0xb02 <__floatunsisf>
     e2e:	a5 01       	movw	r20, r10
     e30:	94 01       	movw	r18, r8
     e32:	0e 94 ee 12 	call	0x25dc	; 0x25dc <__divsf3>
     e36:	20 e0       	ldi	r18, 0x00	; 0
     e38:	30 e0       	ldi	r19, 0x00	; 0
     e3a:	40 e0       	ldi	r20, 0x00	; 0
     e3c:	5f e3       	ldi	r21, 0x3F	; 63
     e3e:	0e 94 7d 12 	call	0x24fa	; 0x24fa <__addsf3>
     e42:	0e 94 60 13 	call	0x26c0	; 0x26c0 <__fixunssfsi>
     e46:	61 15       	cp	r22, r1
     e48:	71 05       	cpc	r23, r1
     e4a:	21 e0       	ldi	r18, 0x01	; 1
     e4c:	82 07       	cpc	r24, r18
     e4e:	91 05       	cpc	r25, r1
     e50:	a0 f4       	brcc	.+40     	; 0xe7a <calculate_timer_16bits+0x88>
     e52:	21 e0       	ldi	r18, 0x01	; 1
     e54:	f8 01       	movw	r30, r16
     e56:	20 83       	st	Z, r18
     e58:	f7 01       	movw	r30, r14
     e5a:	60 83       	st	Z, r22
     e5c:	71 83       	std	Z+1, r23	; 0x01
     e5e:	81 e0       	ldi	r24, 0x01	; 1
     e60:	1f 91       	pop	r17
     e62:	0f 91       	pop	r16
     e64:	ff 90       	pop	r15
     e66:	ef 90       	pop	r14
     e68:	bf 90       	pop	r11
     e6a:	af 90       	pop	r10
     e6c:	9f 90       	pop	r9
     e6e:	8f 90       	pop	r8
     e70:	7f 90       	pop	r7
     e72:	6f 90       	pop	r6
     e74:	5f 90       	pop	r5
     e76:	4f 90       	pop	r4
     e78:	08 95       	ret
     e7a:	96 95       	lsr	r25
     e7c:	87 95       	ror	r24
     e7e:	77 95       	ror	r23
     e80:	67 95       	ror	r22
     e82:	61 15       	cp	r22, r1
     e84:	71 05       	cpc	r23, r1
     e86:	f1 e0       	ldi	r31, 0x01	; 1
     e88:	8f 07       	cpc	r24, r31
     e8a:	91 05       	cpc	r25, r1
     e8c:	80 f0       	brcs	.+32     	; 0xeae <calculate_timer_16bits+0xbc>
     e8e:	96 95       	lsr	r25
     e90:	87 95       	ror	r24
     e92:	77 95       	ror	r23
     e94:	67 95       	ror	r22
     e96:	61 15       	cp	r22, r1
     e98:	71 05       	cpc	r23, r1
     e9a:	f1 e0       	ldi	r31, 0x01	; 1
     e9c:	8f 07       	cpc	r24, r31
     e9e:	91 05       	cpc	r25, r1
     ea0:	50 f4       	brcc	.+20     	; 0xeb6 <calculate_timer_16bits+0xc4>
     ea2:	23 e0       	ldi	r18, 0x03	; 3
     ea4:	f8 01       	movw	r30, r16
     ea6:	20 83       	st	Z, r18
     ea8:	d7 cf       	rjmp	.-82     	; 0xe58 <calculate_timer_16bits+0x66>
     eaa:	80 e0       	ldi	r24, 0x00	; 0
     eac:	d9 cf       	rjmp	.-78     	; 0xe60 <calculate_timer_16bits+0x6e>
     eae:	22 e0       	ldi	r18, 0x02	; 2
     eb0:	f8 01       	movw	r30, r16
     eb2:	20 83       	st	Z, r18
     eb4:	d1 cf       	rjmp	.-94     	; 0xe58 <calculate_timer_16bits+0x66>
     eb6:	96 95       	lsr	r25
     eb8:	87 95       	ror	r24
     eba:	77 95       	ror	r23
     ebc:	67 95       	ror	r22
     ebe:	61 15       	cp	r22, r1
     ec0:	71 05       	cpc	r23, r1
     ec2:	f1 e0       	ldi	r31, 0x01	; 1
     ec4:	8f 07       	cpc	r24, r31
     ec6:	91 05       	cpc	r25, r1
     ec8:	88 f0       	brcs	.+34     	; 0xeec <calculate_timer_16bits+0xfa>
     eca:	a3 e0       	ldi	r26, 0x03	; 3
     ecc:	96 95       	lsr	r25
     ece:	87 95       	ror	r24
     ed0:	77 95       	ror	r23
     ed2:	67 95       	ror	r22
     ed4:	aa 95       	dec	r26
     ed6:	d1 f7       	brne	.-12     	; 0xecc <calculate_timer_16bits+0xda>
     ed8:	61 15       	cp	r22, r1
     eda:	71 05       	cpc	r23, r1
     edc:	f1 e0       	ldi	r31, 0x01	; 1
     ede:	8f 07       	cpc	r24, r31
     ee0:	91 05       	cpc	r25, r1
     ee2:	40 f4       	brcc	.+16     	; 0xef4 <calculate_timer_16bits+0x102>
     ee4:	25 e0       	ldi	r18, 0x05	; 5
     ee6:	f8 01       	movw	r30, r16
     ee8:	20 83       	st	Z, r18
     eea:	b6 cf       	rjmp	.-148    	; 0xe58 <calculate_timer_16bits+0x66>
     eec:	24 e0       	ldi	r18, 0x04	; 4
     eee:	f8 01       	movw	r30, r16
     ef0:	20 83       	st	Z, r18
     ef2:	b2 cf       	rjmp	.-156    	; 0xe58 <calculate_timer_16bits+0x66>
     ef4:	96 95       	lsr	r25
     ef6:	87 95       	ror	r24
     ef8:	77 95       	ror	r23
     efa:	67 95       	ror	r22
     efc:	96 95       	lsr	r25
     efe:	87 95       	ror	r24
     f00:	77 95       	ror	r23
     f02:	67 95       	ror	r22
     f04:	61 15       	cp	r22, r1
     f06:	71 05       	cpc	r23, r1
     f08:	f1 e0       	ldi	r31, 0x01	; 1
     f0a:	8f 07       	cpc	r24, r31
     f0c:	91 05       	cpc	r25, r1
     f0e:	20 f4       	brcc	.+8      	; 0xf18 <calculate_timer_16bits+0x126>
     f10:	26 e0       	ldi	r18, 0x06	; 6
     f12:	f8 01       	movw	r30, r16
     f14:	20 83       	st	Z, r18
     f16:	a0 cf       	rjmp	.-192    	; 0xe58 <calculate_timer_16bits+0x66>
     f18:	96 95       	lsr	r25
     f1a:	87 95       	ror	r24
     f1c:	77 95       	ror	r23
     f1e:	67 95       	ror	r22
     f20:	96 95       	lsr	r25
     f22:	87 95       	ror	r24
     f24:	77 95       	ror	r23
     f26:	67 95       	ror	r22
     f28:	61 15       	cp	r22, r1
     f2a:	71 05       	cpc	r23, r1
     f2c:	f1 e0       	ldi	r31, 0x01	; 1
     f2e:	8f 07       	cpc	r24, r31
     f30:	91 05       	cpc	r25, r1
     f32:	08 f0       	brcs	.+2      	; 0xf36 <calculate_timer_16bits+0x144>
     f34:	ba cf       	rjmp	.-140    	; 0xeaa <calculate_timer_16bits+0xb8>
     f36:	27 e0       	ldi	r18, 0x07	; 7
     f38:	f8 01       	movw	r30, r16
     f3a:	20 83       	st	Z, r18
     f3c:	8d cf       	rjmp	.-230    	; 0xe58 <calculate_timer_16bits+0x66>

00000f3e <timer_type1_enable>:
     f3e:	fc 01       	movw	r30, r24
     f40:	10 82       	st	Z, r1
     f42:	8c e0       	ldi	r24, 0x0C	; 12
     f44:	81 87       	std	Z+9, r24	; 0x09
     f46:	41 50       	subi	r20, 0x01	; 1
     f48:	51 09       	sbc	r21, r1
     f4a:	46 a3       	std	Z+38, r20	; 0x26
     f4c:	57 a3       	std	Z+39, r21	; 0x27
     f4e:	26 83       	std	Z+6, r18	; 0x06
     f50:	60 83       	st	Z, r22
     f52:	08 95       	ret

00000f54 <eeprom_rd_byte>:
     f54:	20 91 cf 01 	lds	r18, 0x01CF	; 0x8001cf <__TEXT_REGION_LENGTH__+0x7001cf>
     f58:	27 fd       	sbrc	r18, 7
     f5a:	fc cf       	rjmp	.-8      	; 0xf54 <eeprom_rd_byte>
     f5c:	80 93 c0 01 	sts	0x01C0, r24	; 0x8001c0 <__TEXT_REGION_LENGTH__+0x7001c0>
     f60:	90 93 c1 01 	sts	0x01C1, r25	; 0x8001c1 <__TEXT_REGION_LENGTH__+0x7001c1>
     f64:	10 92 c2 01 	sts	0x01C2, r1	; 0x8001c2 <__TEXT_REGION_LENGTH__+0x7001c2>
     f68:	86 e0       	ldi	r24, 0x06	; 6
     f6a:	80 93 ca 01 	sts	0x01CA, r24	; 0x8001ca <__TEXT_REGION_LENGTH__+0x7001ca>
     f6e:	88 ed       	ldi	r24, 0xD8	; 216
     f70:	84 bf       	out	0x34, r24	; 52
     f72:	81 e0       	ldi	r24, 0x01	; 1
     f74:	80 93 cb 01 	sts	0x01CB, r24	; 0x8001cb <__TEXT_REGION_LENGTH__+0x7001cb>
     f78:	80 91 c4 01 	lds	r24, 0x01C4	; 0x8001c4 <__TEXT_REGION_LENGTH__+0x7001c4>
     f7c:	08 95       	ret

00000f7e <eeprom_wr_byte>:
     f7e:	20 91 cf 01 	lds	r18, 0x01CF	; 0x8001cf <__TEXT_REGION_LENGTH__+0x7001cf>
     f82:	27 fd       	sbrc	r18, 7
     f84:	fc cf       	rjmp	.-8      	; 0xf7e <eeprom_wr_byte>
     f86:	20 91 cf 01 	lds	r18, 0x01CF	; 0x8001cf <__TEXT_REGION_LENGTH__+0x7001cf>
     f8a:	21 ff       	sbrs	r18, 1
     f8c:	08 c0       	rjmp	.+16     	; 0xf9e <eeprom_wr_byte+0x20>
     f8e:	26 e3       	ldi	r18, 0x36	; 54
     f90:	20 93 ca 01 	sts	0x01CA, r18	; 0x8001ca <__TEXT_REGION_LENGTH__+0x7001ca>
     f94:	28 ed       	ldi	r18, 0xD8	; 216
     f96:	24 bf       	out	0x34, r18	; 52
     f98:	21 e0       	ldi	r18, 0x01	; 1
     f9a:	20 93 cb 01 	sts	0x01CB, r18	; 0x8001cb <__TEXT_REGION_LENGTH__+0x7001cb>
     f9e:	23 e3       	ldi	r18, 0x33	; 51
     fa0:	20 93 ca 01 	sts	0x01CA, r18	; 0x8001ca <__TEXT_REGION_LENGTH__+0x7001ca>
     fa4:	80 93 c0 01 	sts	0x01C0, r24	; 0x8001c0 <__TEXT_REGION_LENGTH__+0x7001c0>
     fa8:	90 93 c1 01 	sts	0x01C1, r25	; 0x8001c1 <__TEXT_REGION_LENGTH__+0x7001c1>
     fac:	10 92 c2 01 	sts	0x01C2, r1	; 0x8001c2 <__TEXT_REGION_LENGTH__+0x7001c2>
     fb0:	60 93 c4 01 	sts	0x01C4, r22	; 0x8001c4 <__TEXT_REGION_LENGTH__+0x7001c4>
     fb4:	85 e3       	ldi	r24, 0x35	; 53
     fb6:	80 93 ca 01 	sts	0x01CA, r24	; 0x8001ca <__TEXT_REGION_LENGTH__+0x7001ca>
     fba:	88 ed       	ldi	r24, 0xD8	; 216
     fbc:	84 bf       	out	0x34, r24	; 52
     fbe:	81 e0       	ldi	r24, 0x01	; 1
     fc0:	80 93 cb 01 	sts	0x01CB, r24	; 0x8001cb <__TEXT_REGION_LENGTH__+0x7001cb>
     fc4:	08 95       	ret

00000fc6 <write_device_name_to_eeprom>:
     fc6:	ff 92       	push	r15
     fc8:	0f 93       	push	r16
     fca:	1f 93       	push	r17
     fcc:	cf 93       	push	r28
     fce:	df 93       	push	r29
     fd0:	8c 01       	movw	r16, r24
     fd2:	c7 e0       	ldi	r28, 0x07	; 7
     fd4:	d0 e0       	ldi	r29, 0x00	; 0
     fd6:	f1 2c       	mov	r15, r1
     fd8:	09 c0       	rjmp	.+18     	; 0xfec <write_device_name_to_eeprom+0x26>
     fda:	f1 10       	cpse	r15, r1
     fdc:	0c c0       	rjmp	.+24     	; 0xff6 <write_device_name_to_eeprom+0x30>
     fde:	ce 01       	movw	r24, r28
     fe0:	0e 94 bf 07 	call	0xf7e	; 0xf7e <eeprom_wr_byte>
     fe4:	21 96       	adiw	r28, 0x01	; 1
     fe6:	c0 32       	cpi	r28, 0x20	; 32
     fe8:	d1 05       	cpc	r29, r1
     fea:	79 f0       	breq	.+30     	; 0x100a <write_device_name_to_eeprom+0x44>
     fec:	f8 01       	movw	r30, r16
     fee:	61 91       	ld	r22, Z+
     ff0:	8f 01       	movw	r16, r30
     ff2:	61 11       	cpse	r22, r1
     ff4:	f2 cf       	rjmp	.-28     	; 0xfda <write_device_name_to_eeprom+0x14>
     ff6:	60 e0       	ldi	r22, 0x00	; 0
     ff8:	ce 01       	movw	r24, r28
     ffa:	0e 94 bf 07 	call	0xf7e	; 0xf7e <eeprom_wr_byte>
     ffe:	ff 24       	eor	r15, r15
    1000:	f3 94       	inc	r15
    1002:	21 96       	adiw	r28, 0x01	; 1
    1004:	c0 32       	cpi	r28, 0x20	; 32
    1006:	d1 05       	cpc	r29, r1
    1008:	89 f7       	brne	.-30     	; 0xfec <write_device_name_to_eeprom+0x26>
    100a:	df 91       	pop	r29
    100c:	cf 91       	pop	r28
    100e:	1f 91       	pop	r17
    1010:	0f 91       	pop	r16
    1012:	ff 90       	pop	r15
    1014:	08 95       	ret

00001016 <xmit>:
    1016:	cf 93       	push	r28
    1018:	96 2f       	mov	r25, r22
    101a:	80 32       	cpi	r24, 0x20	; 32
    101c:	08 f4       	brcc	.+2      	; 0x1020 <xmit+0xa>
    101e:	7f c0       	rjmp	.+254    	; 0x111e <xmit+0x108>
    1020:	28 2f       	mov	r18, r24
    1022:	30 e0       	ldi	r19, 0x00	; 0
    1024:	20 52       	subi	r18, 0x20	; 32
    1026:	31 09       	sbc	r19, r1
    1028:	f9 01       	movw	r30, r18
    102a:	e8 57       	subi	r30, 0x78	; 120
    102c:	ff 4d       	sbci	r31, 0xDF	; 223
    102e:	50 81       	ld	r21, Z
    1030:	22 0f       	add	r18, r18
    1032:	33 1f       	adc	r19, r19
    1034:	f9 01       	movw	r30, r18
    1036:	ea 59       	subi	r30, 0x9A	; 154
    1038:	ff 4d       	sbci	r31, 0xDF	; 223
    103a:	c0 81       	ld	r28, Z
    103c:	f9 01       	movw	r30, r18
    103e:	ec 5b       	subi	r30, 0xBC	; 188
    1040:	ff 4d       	sbci	r31, 0xDF	; 223
    1042:	20 81       	ld	r18, Z
    1044:	31 81       	ldd	r19, Z+1	; 0x01
    1046:	20 93 0d 21 	sts	0x210D, r18	; 0x80210d <reg_p>
    104a:	30 93 0e 21 	sts	0x210E, r19	; 0x80210e <reg_p+0x1>
    104e:	90 93 f9 21 	sts	0x21F9, r25	; 0x8021f9 <reply_buff>
    1052:	25 2f       	mov	r18, r21
    1054:	2f 70       	andi	r18, 0x0F	; 15
    1056:	2c 9f       	mul	r18, r28
    1058:	c0 2d       	mov	r28, r0
    105a:	11 24       	eor	r1, r1
    105c:	ea e0       	ldi	r30, 0x0A	; 10
    105e:	ec 0f       	add	r30, r28
    1060:	e0 93 fa 21 	sts	0x21FA, r30	; 0x8021fa <reply_buff+0x1>
    1064:	80 93 fb 21 	sts	0x21FB, r24	; 0x8021fb <reply_buff+0x2>
    1068:	2f ef       	ldi	r18, 0xFF	; 255
    106a:	20 93 fc 21 	sts	0x21FC, r18	; 0x8021fc <reply_buff+0x3>
    106e:	50 61       	ori	r21, 0x10	; 16
    1070:	50 93 fd 21 	sts	0x21FD, r21	; 0x8021fd <reply_buff+0x4>
    1074:	41 11       	cpse	r20, r1
    1076:	6b c0       	rjmp	.+214    	; 0x114e <xmit+0x138>
    1078:	80 91 09 21 	lds	r24, 0x2109	; 0x802109 <user_R_TIMESTAMP_SECOND>
    107c:	90 91 0a 21 	lds	r25, 0x210A	; 0x80210a <user_R_TIMESTAMP_SECOND+0x1>
    1080:	a0 91 0b 21 	lds	r26, 0x210B	; 0x80210b <user_R_TIMESTAMP_SECOND+0x2>
    1084:	b0 91 0c 21 	lds	r27, 0x210C	; 0x80210c <user_R_TIMESTAMP_SECOND+0x3>
    1088:	80 93 fe 21 	sts	0x21FE, r24	; 0x8021fe <reply_buff+0x5>
    108c:	90 93 ff 21 	sts	0x21FF, r25	; 0x8021ff <reply_buff+0x6>
    1090:	a0 93 00 22 	sts	0x2200, r26	; 0x802200 <reply_buff+0x7>
    1094:	b0 93 01 22 	sts	0x2201, r27	; 0x802201 <reply_buff+0x8>
    1098:	20 91 07 21 	lds	r18, 0x2107	; 0x802107 <user_TCC1_CNT>
    109c:	30 91 08 21 	lds	r19, 0x2108	; 0x802108 <user_TCC1_CNT+0x1>
    10a0:	20 93 02 22 	sts	0x2202, r18	; 0x802202 <reply_buff+0x9>
    10a4:	30 93 03 22 	sts	0x2203, r19	; 0x802203 <reply_buff+0xa>
    10a8:	8e 2f       	mov	r24, r30
    10aa:	90 e0       	ldi	r25, 0x00	; 0
    10ac:	8e 3f       	cpi	r24, 0xFE	; 254
    10ae:	91 05       	cpc	r25, r1
    10b0:	a4 f5       	brge	.+104    	; 0x111a <xmit+0x104>
    10b2:	20 91 0d 21 	lds	r18, 0x210D	; 0x80210d <reg_p>
    10b6:	30 91 0e 21 	lds	r19, 0x210E	; 0x80210e <reg_p+0x1>
    10ba:	40 e0       	ldi	r20, 0x00	; 0
    10bc:	84 2f       	mov	r24, r20
    10be:	90 e0       	ldi	r25, 0x00	; 0
    10c0:	f9 01       	movw	r30, r18
    10c2:	e8 0f       	add	r30, r24
    10c4:	f9 1f       	adc	r31, r25
    10c6:	50 81       	ld	r21, Z
    10c8:	fc 01       	movw	r30, r24
    10ca:	ec 5f       	subi	r30, 0xFC	; 252
    10cc:	fd 4d       	sbci	r31, 0xDD	; 221
    10ce:	50 83       	st	Z, r21
    10d0:	4f 5f       	subi	r20, 0xFF	; 255
    10d2:	4c 13       	cpse	r20, r28
    10d4:	f3 cf       	rjmp	.-26     	; 0x10bc <xmit+0xa6>
    10d6:	20 91 fa 21 	lds	r18, 0x21FA	; 0x8021fa <reply_buff+0x1>
    10da:	2e 5f       	subi	r18, 0xFE	; 254
    10dc:	30 e0       	ldi	r19, 0x00	; 0
    10de:	21 50       	subi	r18, 0x01	; 1
    10e0:	31 09       	sbc	r19, r1
    10e2:	12 16       	cp	r1, r18
    10e4:	13 06       	cpc	r1, r19
    10e6:	0c f0       	brlt	.+2      	; 0x10ea <xmit+0xd4>
    10e8:	9f c0       	rjmp	.+318    	; 0x1228 <xmit+0x212>
    10ea:	80 e0       	ldi	r24, 0x00	; 0
    10ec:	90 e0       	ldi	r25, 0x00	; 0
    10ee:	40 e0       	ldi	r20, 0x00	; 0
    10f0:	50 e0       	ldi	r21, 0x00	; 0
    10f2:	fc 01       	movw	r30, r24
    10f4:	e7 50       	subi	r30, 0x07	; 7
    10f6:	fe 4d       	sbci	r31, 0xDE	; 222
    10f8:	80 81       	ld	r24, Z
    10fa:	58 0f       	add	r21, r24
    10fc:	4f 5f       	subi	r20, 0xFF	; 255
    10fe:	84 2f       	mov	r24, r20
    1100:	90 e0       	ldi	r25, 0x00	; 0
    1102:	82 17       	cp	r24, r18
    1104:	93 07       	cpc	r25, r19
    1106:	ac f3       	brlt	.-22     	; 0x10f2 <xmit+0xdc>
    1108:	f9 01       	movw	r30, r18
    110a:	e7 50       	subi	r30, 0x07	; 7
    110c:	fe 4d       	sbci	r31, 0xDE	; 222
    110e:	50 83       	st	Z, r21
    1110:	80 91 99 20 	lds	r24, 0x2099	; 0x802099 <com_mode>
    1114:	81 30       	cpi	r24, 0x01	; 1
    1116:	09 f4       	brne	.+2      	; 0x111a <xmit+0x104>
    1118:	6b c0       	rjmp	.+214    	; 0x11f0 <xmit+0x1da>
    111a:	cf 91       	pop	r28
    111c:	08 95       	ret
    111e:	8e 30       	cpi	r24, 0x0E	; 14
    1120:	e0 f7       	brcc	.-8      	; 0x111a <xmit+0x104>
    1122:	28 2f       	mov	r18, r24
    1124:	30 e0       	ldi	r19, 0x00	; 0
    1126:	f9 01       	movw	r30, r18
    1128:	eb 51       	subi	r30, 0x1B	; 27
    112a:	ff 4d       	sbci	r31, 0xDF	; 223
    112c:	50 81       	ld	r21, Z
    112e:	22 0f       	add	r18, r18
    1130:	33 1f       	adc	r19, r19
    1132:	f9 01       	movw	r30, r18
    1134:	e7 53       	subi	r30, 0x37	; 55
    1136:	ff 4d       	sbci	r31, 0xDF	; 223
    1138:	c0 81       	ld	r28, Z
    113a:	f9 01       	movw	r30, r18
    113c:	e3 55       	subi	r30, 0x53	; 83
    113e:	ff 4d       	sbci	r31, 0xDF	; 223
    1140:	20 81       	ld	r18, Z
    1142:	31 81       	ldd	r19, Z+1	; 0x01
    1144:	20 93 0d 21 	sts	0x210D, r18	; 0x80210d <reg_p>
    1148:	30 93 0e 21 	sts	0x210E, r19	; 0x80210e <reg_p+0x1>
    114c:	80 cf       	rjmp	.-256    	; 0x104e <xmit+0x38>
    114e:	20 91 4c 08 	lds	r18, 0x084C	; 0x80084c <__TEXT_REGION_LENGTH__+0x70084c>
    1152:	40 91 21 21 	lds	r20, 0x2121	; 0x802121 <commonbank+0x9>
    1156:	50 91 22 21 	lds	r21, 0x2122	; 0x802122 <commonbank+0xa>
    115a:	60 91 23 21 	lds	r22, 0x2123	; 0x802123 <commonbank+0xb>
    115e:	70 91 24 21 	lds	r23, 0x2124	; 0x802124 <commonbank+0xc>
    1162:	20 ff       	sbrs	r18, 0
    1164:	21 c0       	rjmp	.+66     	; 0x11a8 <xmit+0x192>
    1166:	4f 5f       	subi	r20, 0xFF	; 255
    1168:	5f 4f       	sbci	r21, 0xFF	; 255
    116a:	6f 4f       	sbci	r22, 0xFF	; 255
    116c:	7f 4f       	sbci	r23, 0xFF	; 255
    116e:	40 93 fe 21 	sts	0x21FE, r20	; 0x8021fe <reply_buff+0x5>
    1172:	50 93 ff 21 	sts	0x21FF, r21	; 0x8021ff <reply_buff+0x6>
    1176:	60 93 00 22 	sts	0x2200, r22	; 0x802200 <reply_buff+0x7>
    117a:	70 93 01 22 	sts	0x2201, r23	; 0x802201 <reply_buff+0x8>
    117e:	20 91 60 08 	lds	r18, 0x0860	; 0x800860 <__TEXT_REGION_LENGTH__+0x700860>
    1182:	30 91 61 08 	lds	r19, 0x0861	; 0x800861 <__TEXT_REGION_LENGTH__+0x700861>
    1186:	20 93 02 22 	sts	0x2202, r18	; 0x802202 <reply_buff+0x9>
    118a:	30 93 03 22 	sts	0x2203, r19	; 0x802203 <reply_buff+0xa>
    118e:	88 30       	cpi	r24, 0x08	; 8
    1190:	09 f0       	breq	.+2      	; 0x1194 <xmit+0x17e>
    1192:	8a cf       	rjmp	.-236    	; 0x10a8 <xmit+0x92>
    1194:	93 30       	cpi	r25, 0x03	; 3
    1196:	09 f0       	breq	.+2      	; 0x119a <xmit+0x184>
    1198:	87 cf       	rjmp	.-242    	; 0x10a8 <xmit+0x92>
    119a:	10 92 02 22 	sts	0x2202, r1	; 0x802202 <reply_buff+0x9>
    119e:	10 92 03 22 	sts	0x2203, r1	; 0x802203 <reply_buff+0xa>
    11a2:	e0 91 fa 21 	lds	r30, 0x21FA	; 0x8021fa <reply_buff+0x1>
    11a6:	80 cf       	rjmp	.-256    	; 0x10a8 <xmit+0x92>
    11a8:	40 93 fe 21 	sts	0x21FE, r20	; 0x8021fe <reply_buff+0x5>
    11ac:	50 93 ff 21 	sts	0x21FF, r21	; 0x8021ff <reply_buff+0x6>
    11b0:	60 93 00 22 	sts	0x2200, r22	; 0x802200 <reply_buff+0x7>
    11b4:	70 93 01 22 	sts	0x2201, r23	; 0x802201 <reply_buff+0x8>
    11b8:	20 91 60 08 	lds	r18, 0x0860	; 0x800860 <__TEXT_REGION_LENGTH__+0x700860>
    11bc:	30 91 61 08 	lds	r19, 0x0861	; 0x800861 <__TEXT_REGION_LENGTH__+0x700861>
    11c0:	20 93 02 22 	sts	0x2202, r18	; 0x802202 <reply_buff+0x9>
    11c4:	30 93 03 22 	sts	0x2203, r19	; 0x802203 <reply_buff+0xa>
    11c8:	f0 91 12 21 	lds	r31, 0x2112	; 0x802112 <_500us_cca_index>
    11cc:	f0 3d       	cpi	r31, 0xD0	; 208
    11ce:	f9 f6       	brne	.-66     	; 0x118e <xmit+0x178>
    11d0:	2f 30       	cpi	r18, 0x0F	; 15
    11d2:	31 05       	cpc	r19, r1
    11d4:	e0 f6       	brcc	.-72     	; 0x118e <xmit+0x178>
    11d6:	4f 5f       	subi	r20, 0xFF	; 255
    11d8:	5f 4f       	sbci	r21, 0xFF	; 255
    11da:	6f 4f       	sbci	r22, 0xFF	; 255
    11dc:	7f 4f       	sbci	r23, 0xFF	; 255
    11de:	40 93 fe 21 	sts	0x21FE, r20	; 0x8021fe <reply_buff+0x5>
    11e2:	50 93 ff 21 	sts	0x21FF, r21	; 0x8021ff <reply_buff+0x6>
    11e6:	60 93 00 22 	sts	0x2200, r22	; 0x802200 <reply_buff+0x7>
    11ea:	70 93 01 22 	sts	0x2201, r23	; 0x802201 <reply_buff+0x8>
    11ee:	cf cf       	rjmp	.-98     	; 0x118e <xmit+0x178>
    11f0:	83 e8       	ldi	r24, 0x83	; 131
    11f2:	80 93 a2 00 	sts	0x00A2, r24	; 0x8000a2 <__TEXT_REGION_LENGTH__+0x7000a2>
    11f6:	c0 91 a3 0a 	lds	r28, 0x0AA3	; 0x800aa3 <__TEXT_REGION_LENGTH__+0x700aa3>
    11fa:	90 91 a3 0a 	lds	r25, 0x0AA3	; 0x800aa3 <__TEXT_REGION_LENGTH__+0x700aa3>
    11fe:	9c 7f       	andi	r25, 0xFC	; 252
    1200:	90 93 a3 0a 	sts	0x0AA3, r25	; 0x800aa3 <__TEXT_REGION_LENGTH__+0x700aa3>
    1204:	60 91 fa 21 	lds	r22, 0x21FA	; 0x8021fa <reply_buff+0x1>
    1208:	6e 5f       	subi	r22, 0xFE	; 254
    120a:	89 ef       	ldi	r24, 0xF9	; 249
    120c:	91 e2       	ldi	r25, 0x21	; 33
    120e:	0e 94 84 10 	call	0x2108	; 0x2108 <hwbp_uart_xmit>
    1212:	90 91 a3 0a 	lds	r25, 0x0AA3	; 0x800aa3 <__TEXT_REGION_LENGTH__+0x700aa3>
    1216:	8c 2f       	mov	r24, r28
    1218:	83 70       	andi	r24, 0x03	; 3
    121a:	89 2b       	or	r24, r25
    121c:	80 93 a3 0a 	sts	0x0AA3, r24	; 0x800aa3 <__TEXT_REGION_LENGTH__+0x700aa3>
    1220:	87 e8       	ldi	r24, 0x87	; 135
    1222:	80 93 a2 00 	sts	0x00A2, r24	; 0x8000a2 <__TEXT_REGION_LENGTH__+0x7000a2>
    1226:	79 cf       	rjmp	.-270    	; 0x111a <xmit+0x104>
    1228:	50 e0       	ldi	r21, 0x00	; 0
    122a:	6e cf       	rjmp	.-292    	; 0x1108 <xmit+0xf2>

0000122c <xmit_error.part.0.constprop.4>:
    122c:	cf 93       	push	r28
    122e:	e0 91 fc 24 	lds	r30, 0x24FC	; 0x8024fc <rxbuff_hwbp_uart+0x1>
    1232:	2e 2f       	mov	r18, r30
    1234:	30 e0       	ldi	r19, 0x00	; 0
    1236:	24 30       	cpi	r18, 0x04	; 4
    1238:	31 05       	cpc	r19, r1
    123a:	bc f0       	brlt	.+46     	; 0x126a <xmit_error.part.0.constprop.4+0x3e>
    123c:	90 e0       	ldi	r25, 0x00	; 0
    123e:	20 e0       	ldi	r18, 0x00	; 0
    1240:	30 e0       	ldi	r19, 0x00	; 0
    1242:	f9 01       	movw	r30, r18
    1244:	e0 50       	subi	r30, 0x00	; 0
    1246:	fb 4d       	sbci	r31, 0xDB	; 219
    1248:	40 81       	ld	r20, Z
    124a:	f9 01       	movw	r30, r18
    124c:	ea 5f       	subi	r30, 0xFA	; 250
    124e:	fa 4d       	sbci	r31, 0xDA	; 218
    1250:	40 83       	st	Z, r20
    1252:	9f 5f       	subi	r25, 0xFF	; 255
    1254:	29 2f       	mov	r18, r25
    1256:	30 e0       	ldi	r19, 0x00	; 0
    1258:	e0 91 fc 24 	lds	r30, 0x24FC	; 0x8024fc <rxbuff_hwbp_uart+0x1>
    125c:	4e 2f       	mov	r20, r30
    125e:	50 e0       	ldi	r21, 0x00	; 0
    1260:	43 50       	subi	r20, 0x03	; 3
    1262:	51 09       	sbc	r21, r1
    1264:	24 17       	cp	r18, r20
    1266:	35 07       	cpc	r19, r21
    1268:	64 f3       	brlt	.-40     	; 0x1242 <xmit_error.part.0.constprop.4+0x16>
    126a:	80 93 fb 24 	sts	0x24FB, r24	; 0x8024fb <rxbuff_hwbp_uart>
    126e:	ea 5f       	subi	r30, 0xFA	; 250
    1270:	e0 93 fc 24 	sts	0x24FC, r30	; 0x8024fc <rxbuff_hwbp_uart+0x1>
    1274:	80 91 ff 24 	lds	r24, 0x24FF	; 0x8024ff <rxbuff_hwbp_uart+0x4>
    1278:	80 61       	ori	r24, 0x10	; 16
    127a:	80 93 ff 24 	sts	0x24FF, r24	; 0x8024ff <rxbuff_hwbp_uart+0x4>
    127e:	80 91 4c 08 	lds	r24, 0x084C	; 0x80084c <__TEXT_REGION_LENGTH__+0x70084c>
    1282:	80 ff       	sbrs	r24, 0
    1284:	40 c0       	rjmp	.+128    	; 0x1306 <xmit_error.part.0.constprop.4+0xda>
    1286:	80 91 21 21 	lds	r24, 0x2121	; 0x802121 <commonbank+0x9>
    128a:	90 91 22 21 	lds	r25, 0x2122	; 0x802122 <commonbank+0xa>
    128e:	a0 91 23 21 	lds	r26, 0x2123	; 0x802123 <commonbank+0xb>
    1292:	b0 91 24 21 	lds	r27, 0x2124	; 0x802124 <commonbank+0xc>
    1296:	01 96       	adiw	r24, 0x01	; 1
    1298:	a1 1d       	adc	r26, r1
    129a:	b1 1d       	adc	r27, r1
    129c:	80 93 00 25 	sts	0x2500, r24	; 0x802500 <rxbuff_hwbp_uart+0x5>
    12a0:	90 93 01 25 	sts	0x2501, r25	; 0x802501 <rxbuff_hwbp_uart+0x6>
    12a4:	a0 93 02 25 	sts	0x2502, r26	; 0x802502 <rxbuff_hwbp_uart+0x7>
    12a8:	b0 93 03 25 	sts	0x2503, r27	; 0x802503 <rxbuff_hwbp_uart+0x8>
    12ac:	80 91 60 08 	lds	r24, 0x0860	; 0x800860 <__TEXT_REGION_LENGTH__+0x700860>
    12b0:	90 91 61 08 	lds	r25, 0x0861	; 0x800861 <__TEXT_REGION_LENGTH__+0x700861>
    12b4:	80 93 04 25 	sts	0x2504, r24	; 0x802504 <rxbuff_hwbp_uart+0x9>
    12b8:	90 93 05 25 	sts	0x2505, r25	; 0x802505 <rxbuff_hwbp_uart+0xa>
    12bc:	f0 e0       	ldi	r31, 0x00	; 0
    12be:	e4 50       	subi	r30, 0x04	; 4
    12c0:	fb 4d       	sbci	r31, 0xDB	; 219
    12c2:	10 82       	st	Z, r1
    12c4:	60 91 fc 24 	lds	r22, 0x24FC	; 0x8024fc <rxbuff_hwbp_uart+0x1>
    12c8:	40 e0       	ldi	r20, 0x00	; 0
    12ca:	26 2f       	mov	r18, r22
    12cc:	30 e0       	ldi	r19, 0x00	; 0
    12ce:	80 e0       	ldi	r24, 0x00	; 0
    12d0:	90 e0       	ldi	r25, 0x00	; 0
    12d2:	f9 01       	movw	r30, r18
    12d4:	e4 50       	subi	r30, 0x04	; 4
    12d6:	fb 4d       	sbci	r31, 0xDB	; 219
    12d8:	dc 01       	movw	r26, r24
    12da:	a5 50       	subi	r26, 0x05	; 5
    12dc:	bb 4d       	sbci	r27, 0xDB	; 219
    12de:	20 81       	ld	r18, Z
    12e0:	8c 91       	ld	r24, X
    12e2:	28 0f       	add	r18, r24
    12e4:	20 83       	st	Z, r18
    12e6:	4f 5f       	subi	r20, 0xFF	; 255
    12e8:	60 91 fc 24 	lds	r22, 0x24FC	; 0x8024fc <rxbuff_hwbp_uart+0x1>
    12ec:	26 2f       	mov	r18, r22
    12ee:	30 e0       	ldi	r19, 0x00	; 0
    12f0:	84 2f       	mov	r24, r20
    12f2:	90 e0       	ldi	r25, 0x00	; 0
    12f4:	28 17       	cp	r18, r24
    12f6:	39 07       	cpc	r19, r25
    12f8:	64 f7       	brge	.-40     	; 0x12d2 <xmit_error.part.0.constprop.4+0xa6>
    12fa:	80 91 99 20 	lds	r24, 0x2099	; 0x802099 <com_mode>
    12fe:	81 30       	cpi	r24, 0x01	; 1
    1300:	79 f1       	breq	.+94     	; 0x1360 <xmit_error.part.0.constprop.4+0x134>
    1302:	cf 91       	pop	r28
    1304:	08 95       	ret
    1306:	80 91 21 21 	lds	r24, 0x2121	; 0x802121 <commonbank+0x9>
    130a:	90 91 22 21 	lds	r25, 0x2122	; 0x802122 <commonbank+0xa>
    130e:	a0 91 23 21 	lds	r26, 0x2123	; 0x802123 <commonbank+0xb>
    1312:	b0 91 24 21 	lds	r27, 0x2124	; 0x802124 <commonbank+0xc>
    1316:	80 93 00 25 	sts	0x2500, r24	; 0x802500 <rxbuff_hwbp_uart+0x5>
    131a:	90 93 01 25 	sts	0x2501, r25	; 0x802501 <rxbuff_hwbp_uart+0x6>
    131e:	a0 93 02 25 	sts	0x2502, r26	; 0x802502 <rxbuff_hwbp_uart+0x7>
    1322:	b0 93 03 25 	sts	0x2503, r27	; 0x802503 <rxbuff_hwbp_uart+0x8>
    1326:	20 91 60 08 	lds	r18, 0x0860	; 0x800860 <__TEXT_REGION_LENGTH__+0x700860>
    132a:	30 91 61 08 	lds	r19, 0x0861	; 0x800861 <__TEXT_REGION_LENGTH__+0x700861>
    132e:	20 93 04 25 	sts	0x2504, r18	; 0x802504 <rxbuff_hwbp_uart+0x9>
    1332:	30 93 05 25 	sts	0x2505, r19	; 0x802505 <rxbuff_hwbp_uart+0xa>
    1336:	40 91 12 21 	lds	r20, 0x2112	; 0x802112 <_500us_cca_index>
    133a:	40 3d       	cpi	r20, 0xD0	; 208
    133c:	09 f0       	breq	.+2      	; 0x1340 <xmit_error.part.0.constprop.4+0x114>
    133e:	be cf       	rjmp	.-132    	; 0x12bc <xmit_error.part.0.constprop.4+0x90>
    1340:	2f 30       	cpi	r18, 0x0F	; 15
    1342:	31 05       	cpc	r19, r1
    1344:	08 f0       	brcs	.+2      	; 0x1348 <xmit_error.part.0.constprop.4+0x11c>
    1346:	ba cf       	rjmp	.-140    	; 0x12bc <xmit_error.part.0.constprop.4+0x90>
    1348:	01 96       	adiw	r24, 0x01	; 1
    134a:	a1 1d       	adc	r26, r1
    134c:	b1 1d       	adc	r27, r1
    134e:	80 93 00 25 	sts	0x2500, r24	; 0x802500 <rxbuff_hwbp_uart+0x5>
    1352:	90 93 01 25 	sts	0x2501, r25	; 0x802501 <rxbuff_hwbp_uart+0x6>
    1356:	a0 93 02 25 	sts	0x2502, r26	; 0x802502 <rxbuff_hwbp_uart+0x7>
    135a:	b0 93 03 25 	sts	0x2503, r27	; 0x802503 <rxbuff_hwbp_uart+0x8>
    135e:	ae cf       	rjmp	.-164    	; 0x12bc <xmit_error.part.0.constprop.4+0x90>
    1360:	83 e8       	ldi	r24, 0x83	; 131
    1362:	80 93 a2 00 	sts	0x00A2, r24	; 0x8000a2 <__TEXT_REGION_LENGTH__+0x7000a2>
    1366:	c0 91 a3 0a 	lds	r28, 0x0AA3	; 0x800aa3 <__TEXT_REGION_LENGTH__+0x700aa3>
    136a:	90 91 a3 0a 	lds	r25, 0x0AA3	; 0x800aa3 <__TEXT_REGION_LENGTH__+0x700aa3>
    136e:	9c 7f       	andi	r25, 0xFC	; 252
    1370:	90 93 a3 0a 	sts	0x0AA3, r25	; 0x800aa3 <__TEXT_REGION_LENGTH__+0x700aa3>
    1374:	6e 5f       	subi	r22, 0xFE	; 254
    1376:	8b ef       	ldi	r24, 0xFB	; 251
    1378:	94 e2       	ldi	r25, 0x24	; 36
    137a:	0e 94 84 10 	call	0x2108	; 0x2108 <hwbp_uart_xmit>
    137e:	90 91 a3 0a 	lds	r25, 0x0AA3	; 0x800aa3 <__TEXT_REGION_LENGTH__+0x700aa3>
    1382:	8c 2f       	mov	r24, r28
    1384:	83 70       	andi	r24, 0x03	; 3
    1386:	89 2b       	or	r24, r25
    1388:	80 93 a3 0a 	sts	0x0AA3, r24	; 0x800aa3 <__TEXT_REGION_LENGTH__+0x700aa3>
    138c:	87 e8       	ldi	r24, 0x87	; 135
    138e:	80 93 a2 00 	sts	0x00A2, r24	; 0x8000a2 <__TEXT_REGION_LENGTH__+0x7000a2>
    1392:	cf 91       	pop	r28
    1394:	08 95       	ret

00001396 <core_func_start_core>:
    1396:	3f 92       	push	r3
    1398:	4f 92       	push	r4
    139a:	5f 92       	push	r5
    139c:	6f 92       	push	r6
    139e:	7f 92       	push	r7
    13a0:	8f 92       	push	r8
    13a2:	9f 92       	push	r9
    13a4:	af 92       	push	r10
    13a6:	bf 92       	push	r11
    13a8:	cf 92       	push	r12
    13aa:	df 92       	push	r13
    13ac:	ef 92       	push	r14
    13ae:	ff 92       	push	r15
    13b0:	0f 93       	push	r16
    13b2:	1f 93       	push	r17
    13b4:	cf 93       	push	r28
    13b6:	df 93       	push	r29
    13b8:	cd b7       	in	r28, 0x3d	; 61
    13ba:	de b7       	in	r29, 0x3e	; 62
    13bc:	3c 01       	movw	r6, r24
    13be:	96 2e       	mov	r9, r22
    13c0:	14 2f       	mov	r17, r20
    13c2:	f2 2e       	mov	r15, r18
    13c4:	4c 88       	ldd	r4, Y+20	; 0x14
    13c6:	5d 88       	ldd	r5, Y+21	; 0x15
    13c8:	0e 94 66 06 	call	0xccc	; 0xccc <wdt_disable>
    13cc:	21 e0       	ldi	r18, 0x01	; 1
    13ce:	41 e0       	ldi	r20, 0x01	; 1
    13d0:	60 e0       	ldi	r22, 0x00	; 0
    13d2:	78 e4       	ldi	r23, 0x48	; 72
    13d4:	88 ee       	ldi	r24, 0xE8	; 232
    13d6:	91 e0       	ldi	r25, 0x01	; 1
    13d8:	0e 94 be 05 	call	0xb7c	; 0xb7c <cpu_config_clock>
    13dc:	81 e0       	ldi	r24, 0x01	; 1
    13de:	80 93 48 00 	sts	0x0048, r24	; 0x800048 <__TEXT_REGION_LENGTH__+0x700048>
    13e2:	60 92 18 21 	sts	0x2118, r6	; 0x802118 <commonbank>
    13e6:	70 92 19 21 	sts	0x2119, r7	; 0x802119 <commonbank+0x1>
    13ea:	90 92 1a 21 	sts	0x211A, r9	; 0x80211a <commonbank+0x2>
    13ee:	10 93 1b 21 	sts	0x211B, r17	; 0x80211b <commonbank+0x3>
    13f2:	e0 92 1c 21 	sts	0x211C, r14	; 0x80211c <commonbank+0x4>
    13f6:	80 93 1d 21 	sts	0x211D, r24	; 0x80211d <commonbank+0x5>
    13fa:	87 e0       	ldi	r24, 0x07	; 7
    13fc:	80 93 1e 21 	sts	0x211E, r24	; 0x80211e <commonbank+0x6>
    1400:	f0 92 1f 21 	sts	0x211F, r15	; 0x80211f <commonbank+0x7>
    1404:	00 93 20 21 	sts	0x2120, r16	; 0x802120 <commonbank+0x8>
    1408:	10 92 21 21 	sts	0x2121, r1	; 0x802121 <commonbank+0x9>
    140c:	10 92 22 21 	sts	0x2122, r1	; 0x802122 <commonbank+0xa>
    1410:	10 92 23 21 	sts	0x2123, r1	; 0x802123 <commonbank+0xb>
    1414:	10 92 24 21 	sts	0x2124, r1	; 0x802124 <commonbank+0xc>
    1418:	10 92 25 21 	sts	0x2125, r1	; 0x802125 <commonbank+0xd>
    141c:	10 92 26 21 	sts	0x2126, r1	; 0x802126 <commonbank+0xe>
    1420:	82 e0       	ldi	r24, 0x02	; 2
    1422:	90 e0       	ldi	r25, 0x00	; 0
    1424:	0e 94 aa 07 	call	0xf54	; 0xf54 <eeprom_rd_byte>
    1428:	38 2e       	mov	r3, r24
    142a:	83 e0       	ldi	r24, 0x03	; 3
    142c:	90 e0       	ldi	r25, 0x00	; 0
    142e:	0e 94 aa 07 	call	0xf54	; 0xf54 <eeprom_rd_byte>
    1432:	98 2e       	mov	r9, r24
    1434:	8f ef       	ldi	r24, 0xFF	; 255
    1436:	98 16       	cp	r9, r24
    1438:	09 f4       	brne	.+2      	; 0x143c <core_func_start_core+0xa6>
    143a:	da c0       	rjmp	.+436    	; 0x15f0 <core_func_start_core+0x25a>
    143c:	f3 14       	cp	r15, r3
    143e:	09 f4       	brne	.+2      	; 0x1442 <core_func_start_core+0xac>
    1440:	a9 c0       	rjmp	.+338    	; 0x1594 <core_func_start_core+0x1fe>
    1442:	6f ed       	ldi	r22, 0xDF	; 223
    1444:	80 e0       	ldi	r24, 0x00	; 0
    1446:	90 e0       	ldi	r25, 0x00	; 0
    1448:	0e 94 bf 07 	call	0xf7e	; 0xf7e <eeprom_wr_byte>
    144c:	6f 2d       	mov	r22, r15
    144e:	82 e0       	ldi	r24, 0x02	; 2
    1450:	90 e0       	ldi	r25, 0x00	; 0
    1452:	0e 94 bf 07 	call	0xf7e	; 0xf7e <eeprom_wr_byte>
    1456:	61 e0       	ldi	r22, 0x01	; 1
    1458:	83 e0       	ldi	r24, 0x03	; 3
    145a:	90 e0       	ldi	r25, 0x00	; 0
    145c:	0e 94 bf 07 	call	0xf7e	; 0xf7e <eeprom_wr_byte>
    1460:	0e 94 45 01 	call	0x28a	; 0x28a <core_callback_1st_config_hw_after_boot>
    1464:	80 e0       	ldi	r24, 0x00	; 0
    1466:	90 e0       	ldi	r25, 0x00	; 0
    1468:	0e 94 aa 07 	call	0xf54	; 0xf54 <eeprom_rd_byte>
    146c:	8e 3e       	cpi	r24, 0xEE	; 238
    146e:	09 f4       	brne	.+2      	; 0x1472 <core_func_start_core+0xdc>
    1470:	9d c0       	rjmp	.+314    	; 0x15ac <core_func_start_core+0x216>
    1472:	80 e6       	ldi	r24, 0x60	; 96
    1474:	80 93 27 21 	sts	0x2127, r24	; 0x802127 <commonbank+0xf>
    1478:	80 e4       	ldi	r24, 0x40	; 64
    147a:	80 93 28 21 	sts	0x2128, r24	; 0x802128 <commonbank+0x10>
    147e:	0e 94 47 01 	call	0x28e	; 0x28e <core_callback_reset_registers>
    1482:	0e 94 7c 01 	call	0x2f8	; 0x2f8 <core_callback_registers_were_reinitialized>
    1486:	a0 92 16 21 	sts	0x2116, r10	; 0x802116 <core_app_mem_size_to_save>
    148a:	b0 92 17 21 	sts	0x2117, r11	; 0x802117 <core_app_mem_size_to_save+0x1>
    148e:	c0 92 14 21 	sts	0x2114, r12	; 0x802114 <core_pointer_to_app_regs>
    1492:	d0 92 15 21 	sts	0x2115, r13	; 0x802115 <core_pointer_to_app_regs+0x1>
    1496:	80 92 13 21 	sts	0x2113, r8	; 0x802113 <core_num_of_app_registers>
    149a:	87 e0       	ldi	r24, 0x07	; 7
    149c:	90 e0       	ldi	r25, 0x00	; 0
    149e:	0e 94 aa 07 	call	0xf54	; 0xf54 <eeprom_rd_byte>
    14a2:	8f 3f       	cpi	r24, 0xFF	; 255
    14a4:	09 f4       	brne	.+2      	; 0x14a8 <core_func_start_core+0x112>
    14a6:	e2 c0       	rjmp	.+452    	; 0x166c <core_func_start_core+0x2d6>
    14a8:	09 e2       	ldi	r16, 0x29	; 41
    14aa:	11 e2       	ldi	r17, 0x21	; 33
    14ac:	f6 ef       	ldi	r31, 0xF6	; 246
    14ae:	ef 2e       	mov	r14, r31
    14b0:	ff 24       	eor	r15, r15
    14b2:	fa 94       	dec	r15
    14b4:	c7 01       	movw	r24, r14
    14b6:	88 51       	subi	r24, 0x18	; 24
    14b8:	91 42       	sbci	r25, 0x21	; 33
    14ba:	7c 01       	movw	r14, r24
    14bc:	c7 01       	movw	r24, r14
    14be:	80 0f       	add	r24, r16
    14c0:	91 1f       	adc	r25, r17
    14c2:	0e 94 aa 07 	call	0xf54	; 0xf54 <eeprom_rd_byte>
    14c6:	f8 01       	movw	r30, r16
    14c8:	81 93       	st	Z+, r24
    14ca:	8f 01       	movw	r16, r30
    14cc:	f1 e2       	ldi	r31, 0x21	; 33
    14ce:	02 34       	cpi	r16, 0x42	; 66
    14d0:	1f 07       	cpc	r17, r31
    14d2:	a1 f7       	brne	.-24     	; 0x14bc <core_func_start_core+0x126>
    14d4:	89 e1       	ldi	r24, 0x19	; 25
    14d6:	e9 e2       	ldi	r30, 0x29	; 41
    14d8:	f1 e2       	ldi	r31, 0x21	; 33
    14da:	a5 e4       	ldi	r26, 0x45	; 69
    14dc:	b1 e2       	ldi	r27, 0x21	; 33
    14de:	01 90       	ld	r0, Z+
    14e0:	0d 92       	st	X+, r0
    14e2:	8a 95       	dec	r24
    14e4:	e1 f7       	brne	.-8      	; 0x14de <core_func_start_core+0x148>
    14e6:	84 e0       	ldi	r24, 0x04	; 4
    14e8:	90 e0       	ldi	r25, 0x00	; 0
    14ea:	0e 94 aa 07 	call	0xf54	; 0xf54 <eeprom_rd_byte>
    14ee:	08 2f       	mov	r16, r24
    14f0:	10 e0       	ldi	r17, 0x00	; 0
    14f2:	00 93 42 21 	sts	0x2142, r16	; 0x802142 <commonbank+0x2a>
    14f6:	10 93 43 21 	sts	0x2143, r17	; 0x802143 <commonbank+0x2b>
    14fa:	85 e0       	ldi	r24, 0x05	; 5
    14fc:	90 e0       	ldi	r25, 0x00	; 0
    14fe:	0e 94 aa 07 	call	0xf54	; 0xf54 <eeprom_rd_byte>
    1502:	30 2f       	mov	r19, r16
    1504:	22 27       	eor	r18, r18
    1506:	28 2b       	or	r18, r24
    1508:	20 93 42 21 	sts	0x2142, r18	; 0x802142 <commonbank+0x2a>
    150c:	30 93 43 21 	sts	0x2143, r19	; 0x802143 <commonbank+0x2b>
    1510:	21 e0       	ldi	r18, 0x01	; 1
    1512:	42 e1       	ldi	r20, 0x12	; 18
    1514:	5a e7       	ldi	r21, 0x7A	; 122
    1516:	67 e0       	ldi	r22, 0x07	; 7
    1518:	80 e4       	ldi	r24, 0x40	; 64
    151a:	98 e0       	ldi	r25, 0x08	; 8
    151c:	0e 94 9f 07 	call	0xf3e	; 0xf3e <timer_type1_enable>
    1520:	e0 91 12 21 	lds	r30, 0x2112	; 0x802112 <_500us_cca_index>
    1524:	81 e0       	ldi	r24, 0x01	; 1
    1526:	8e 0f       	add	r24, r30
    1528:	80 93 12 21 	sts	0x2112, r24	; 0x802112 <_500us_cca_index>
    152c:	f0 e0       	ldi	r31, 0x00	; 0
    152e:	eb 55       	subi	r30, 0x5B	; 91
    1530:	ff 4d       	sbci	r31, 0xDF	; 223
    1532:	80 81       	ld	r24, Z
    1534:	90 e0       	ldi	r25, 0x00	; 0
    1536:	01 97       	sbiw	r24, 0x01	; 1
    1538:	80 93 68 08 	sts	0x0868, r24	; 0x800868 <__TEXT_REGION_LENGTH__+0x700868>
    153c:	90 93 69 08 	sts	0x0869, r25	; 0x800869 <__TEXT_REGION_LENGTH__+0x700869>
    1540:	81 e0       	ldi	r24, 0x01	; 1
    1542:	80 93 47 08 	sts	0x0847, r24	; 0x800847 <__TEXT_REGION_LENGTH__+0x700847>
    1546:	20 e0       	ldi	r18, 0x00	; 0
    1548:	40 e0       	ldi	r20, 0x00	; 0
    154a:	65 e0       	ldi	r22, 0x05	; 5
    154c:	80 e6       	ldi	r24, 0x60	; 96
    154e:	96 e0       	ldi	r25, 0x06	; 6
    1550:	0e 94 87 06 	call	0xd0e	; 0xd0e <io_pin2out>
    1554:	80 e2       	ldi	r24, 0x20	; 32
    1556:	80 93 65 06 	sts	0x0665, r24	; 0x800665 <__TEXT_REGION_LENGTH__+0x700665>
    155a:	40 e0       	ldi	r20, 0x00	; 0
    155c:	60 e0       	ldi	r22, 0x00	; 0
    155e:	81 e0       	ldi	r24, 0x01	; 1
    1560:	90 e0       	ldi	r25, 0x00	; 0
    1562:	0e 94 8e 0f 	call	0x1f1c	; 0x1f1c <hwbp_com_uart_init>
    1566:	0e 94 ec 0f 	call	0x1fd8	; 0x1fd8 <hwbp_com_uart_enable>
    156a:	81 e2       	ldi	r24, 0x21	; 33
    156c:	91 e2       	ldi	r25, 0x21	; 33
    156e:	df 91       	pop	r29
    1570:	cf 91       	pop	r28
    1572:	1f 91       	pop	r17
    1574:	0f 91       	pop	r16
    1576:	ff 90       	pop	r15
    1578:	ef 90       	pop	r14
    157a:	df 90       	pop	r13
    157c:	cf 90       	pop	r12
    157e:	bf 90       	pop	r11
    1580:	af 90       	pop	r10
    1582:	9f 90       	pop	r9
    1584:	8f 90       	pop	r8
    1586:	7f 90       	pop	r7
    1588:	6f 90       	pop	r6
    158a:	5f 90       	pop	r5
    158c:	4f 90       	pop	r4
    158e:	3f 90       	pop	r3
    1590:	0c 94 a7 11 	jmp	0x234e	; 0x234e <initialize_timestamp_uart>
    1594:	91 e0       	ldi	r25, 0x01	; 1
    1596:	99 12       	cpse	r9, r25
    1598:	54 cf       	rjmp	.-344    	; 0x1442 <core_func_start_core+0xac>
    159a:	0e 94 45 01 	call	0x28a	; 0x28a <core_callback_1st_config_hw_after_boot>
    159e:	80 e0       	ldi	r24, 0x00	; 0
    15a0:	90 e0       	ldi	r25, 0x00	; 0
    15a2:	0e 94 aa 07 	call	0xf54	; 0xf54 <eeprom_rd_byte>
    15a6:	8e 3e       	cpi	r24, 0xEE	; 238
    15a8:	09 f0       	breq	.+2      	; 0x15ac <core_func_start_core+0x216>
    15aa:	63 cf       	rjmp	.-314    	; 0x1472 <core_func_start_core+0xdc>
    15ac:	81 e0       	ldi	r24, 0x01	; 1
    15ae:	90 e0       	ldi	r25, 0x00	; 0
    15b0:	0e 94 aa 07 	call	0xf54	; 0xf54 <eeprom_rd_byte>
    15b4:	80 93 27 21 	sts	0x2127, r24	; 0x802127 <commonbank+0xf>
    15b8:	a1 14       	cp	r10, r1
    15ba:	b1 04       	cpc	r11, r1
    15bc:	99 f0       	breq	.+38     	; 0x15e4 <core_func_start_core+0x24e>
    15be:	76 01       	movw	r14, r12
    15c0:	85 01       	movw	r16, r10
    15c2:	0c 0d       	add	r16, r12
    15c4:	1d 1d       	adc	r17, r13
    15c6:	a0 e2       	ldi	r26, 0x20	; 32
    15c8:	6a 2e       	mov	r6, r26
    15ca:	71 2c       	mov	r7, r1
    15cc:	c3 01       	movw	r24, r6
    15ce:	0e 94 aa 07 	call	0xf54	; 0xf54 <eeprom_rd_byte>
    15d2:	f7 01       	movw	r30, r14
    15d4:	81 93       	st	Z+, r24
    15d6:	7f 01       	movw	r14, r30
    15d8:	ff ef       	ldi	r31, 0xFF	; 255
    15da:	6f 1a       	sub	r6, r31
    15dc:	7f 0a       	sbc	r7, r31
    15de:	e0 16       	cp	r14, r16
    15e0:	f1 06       	cpc	r15, r17
    15e2:	a1 f7       	brne	.-24     	; 0x15cc <core_func_start_core+0x236>
    15e4:	80 e8       	ldi	r24, 0x80	; 128
    15e6:	80 93 28 21 	sts	0x2128, r24	; 0x802128 <commonbank+0x10>
    15ea:	0e 94 7c 01 	call	0x2f8	; 0x2f8 <core_callback_registers_were_reinitialized>
    15ee:	4b cf       	rjmp	.-362    	; 0x1486 <core_func_start_core+0xf0>
    15f0:	6f 2d       	mov	r22, r15
    15f2:	82 e0       	ldi	r24, 0x02	; 2
    15f4:	90 e0       	ldi	r25, 0x00	; 0
    15f6:	0e 94 bf 07 	call	0xf7e	; 0xf7e <eeprom_wr_byte>
    15fa:	61 e0       	ldi	r22, 0x01	; 1
    15fc:	83 e0       	ldi	r24, 0x03	; 3
    15fe:	90 e0       	ldi	r25, 0x00	; 0
    1600:	0e 94 bf 07 	call	0xf7e	; 0xf7e <eeprom_wr_byte>
    1604:	82 e0       	ldi	r24, 0x02	; 2
    1606:	90 e0       	ldi	r25, 0x00	; 0
    1608:	0e 94 aa 07 	call	0xf54	; 0xf54 <eeprom_rd_byte>
    160c:	38 2e       	mov	r3, r24
    160e:	83 e0       	ldi	r24, 0x03	; 3
    1610:	90 e0       	ldi	r25, 0x00	; 0
    1612:	0e 94 aa 07 	call	0xf54	; 0xf54 <eeprom_rd_byte>
    1616:	98 2e       	mov	r9, r24
    1618:	82 01       	movw	r16, r4
    161a:	b7 e0       	ldi	r27, 0x07	; 7
    161c:	6b 2e       	mov	r6, r27
    161e:	71 2c       	mov	r7, r1
    1620:	e1 2c       	mov	r14, r1
    1622:	0c c0       	rjmp	.+24     	; 0x163c <core_func_start_core+0x2a6>
    1624:	e1 10       	cpse	r14, r1
    1626:	0f c0       	rjmp	.+30     	; 0x1646 <core_func_start_core+0x2b0>
    1628:	c3 01       	movw	r24, r6
    162a:	0e 94 bf 07 	call	0xf7e	; 0xf7e <eeprom_wr_byte>
    162e:	ff ef       	ldi	r31, 0xFF	; 255
    1630:	6f 1a       	sub	r6, r31
    1632:	7f 0a       	sbc	r7, r31
    1634:	80 e2       	ldi	r24, 0x20	; 32
    1636:	68 16       	cp	r6, r24
    1638:	71 04       	cpc	r7, r1
    163a:	91 f0       	breq	.+36     	; 0x1660 <core_func_start_core+0x2ca>
    163c:	f8 01       	movw	r30, r16
    163e:	61 91       	ld	r22, Z+
    1640:	8f 01       	movw	r16, r30
    1642:	61 11       	cpse	r22, r1
    1644:	ef cf       	rjmp	.-34     	; 0x1624 <core_func_start_core+0x28e>
    1646:	60 e0       	ldi	r22, 0x00	; 0
    1648:	c3 01       	movw	r24, r6
    164a:	0e 94 bf 07 	call	0xf7e	; 0xf7e <eeprom_wr_byte>
    164e:	ee 24       	eor	r14, r14
    1650:	e3 94       	inc	r14
    1652:	ff ef       	ldi	r31, 0xFF	; 255
    1654:	6f 1a       	sub	r6, r31
    1656:	7f 0a       	sbc	r7, r31
    1658:	80 e2       	ldi	r24, 0x20	; 32
    165a:	68 16       	cp	r6, r24
    165c:	71 04       	cpc	r7, r1
    165e:	71 f7       	brne	.-36     	; 0x163c <core_func_start_core+0x2a6>
    1660:	6f ed       	ldi	r22, 0xDF	; 223
    1662:	80 e0       	ldi	r24, 0x00	; 0
    1664:	90 e0       	ldi	r25, 0x00	; 0
    1666:	0e 94 bf 07 	call	0xf7e	; 0xf7e <eeprom_wr_byte>
    166a:	e8 ce       	rjmp	.-560    	; 0x143c <core_func_start_core+0xa6>
    166c:	72 01       	movw	r14, r4
    166e:	07 e0       	ldi	r16, 0x07	; 7
    1670:	10 e0       	ldi	r17, 0x00	; 0
    1672:	d1 2c       	mov	r13, r1
    1674:	0b c0       	rjmp	.+22     	; 0x168c <core_func_start_core+0x2f6>
    1676:	d1 10       	cpse	r13, r1
    1678:	0e c0       	rjmp	.+28     	; 0x1696 <core_func_start_core+0x300>
    167a:	c8 01       	movw	r24, r16
    167c:	0e 94 bf 07 	call	0xf7e	; 0xf7e <eeprom_wr_byte>
    1680:	0f 5f       	subi	r16, 0xFF	; 255
    1682:	1f 4f       	sbci	r17, 0xFF	; 255
    1684:	00 32       	cpi	r16, 0x20	; 32
    1686:	11 05       	cpc	r17, r1
    1688:	09 f4       	brne	.+2      	; 0x168c <core_func_start_core+0x2f6>
    168a:	0e cf       	rjmp	.-484    	; 0x14a8 <core_func_start_core+0x112>
    168c:	f7 01       	movw	r30, r14
    168e:	61 91       	ld	r22, Z+
    1690:	7f 01       	movw	r14, r30
    1692:	61 11       	cpse	r22, r1
    1694:	f0 cf       	rjmp	.-32     	; 0x1676 <core_func_start_core+0x2e0>
    1696:	60 e0       	ldi	r22, 0x00	; 0
    1698:	c8 01       	movw	r24, r16
    169a:	0e 94 bf 07 	call	0xf7e	; 0xf7e <eeprom_wr_byte>
    169e:	dd 24       	eor	r13, r13
    16a0:	d3 94       	inc	r13
    16a2:	ee cf       	rjmp	.-36     	; 0x1680 <core_func_start_core+0x2ea>

000016a4 <core_func_catastrophic_error_detected>:
    16a4:	0e 94 44 01 	call	0x288	; 0x288 <core_callback_catastrophic_error_detected>
    16a8:	20 e2       	ldi	r18, 0x20	; 32
    16aa:	80 e0       	ldi	r24, 0x00	; 0
    16ac:	92 ee       	ldi	r25, 0xE2	; 226
    16ae:	a4 e0       	ldi	r26, 0x04	; 4
    16b0:	b0 e0       	ldi	r27, 0x00	; 0
    16b2:	01 97       	sbiw	r24, 0x01	; 1
    16b4:	a1 09       	sbc	r26, r1
    16b6:	b1 09       	sbc	r27, r1
    16b8:	00 97       	sbiw	r24, 0x00	; 0
    16ba:	a1 05       	cpc	r26, r1
    16bc:	b1 05       	cpc	r27, r1
    16be:	c9 f7       	brne	.-14     	; 0x16b2 <core_func_catastrophic_error_detected+0xe>
    16c0:	20 93 67 06 	sts	0x0667, r18	; 0x800667 <__TEXT_REGION_LENGTH__+0x700667>
    16c4:	f2 cf       	rjmp	.-28     	; 0x16aa <core_func_catastrophic_error_detected+0x6>

000016c6 <__vector_20>:
    16c6:	80 91 21 21 	lds	r24, 0x2121	; 0x802121 <commonbank+0x9>
    16ca:	90 91 22 21 	lds	r25, 0x2122	; 0x802122 <commonbank+0xa>
    16ce:	a0 91 23 21 	lds	r26, 0x2123	; 0x802123 <commonbank+0xb>
    16d2:	b0 91 24 21 	lds	r27, 0x2124	; 0x802124 <commonbank+0xc>
    16d6:	01 96       	adiw	r24, 0x01	; 1
    16d8:	a1 1d       	adc	r26, r1
    16da:	b1 1d       	adc	r27, r1
    16dc:	80 93 21 21 	sts	0x2121, r24	; 0x802121 <commonbank+0x9>
    16e0:	90 93 22 21 	sts	0x2122, r25	; 0x802122 <commonbank+0xa>
    16e4:	a0 93 23 21 	sts	0x2123, r26	; 0x802123 <commonbank+0xb>
    16e8:	b0 93 24 21 	sts	0x2124, r27	; 0x802124 <commonbank+0xc>
    16ec:	0e 94 df 11 	call	0x23be	; 0x23be <reset_sync_counter>
    16f0:	8e e0       	ldi	r24, 0x0E	; 14
    16f2:	90 e0       	ldi	r25, 0x00	; 0
    16f4:	80 93 68 08 	sts	0x0868, r24	; 0x800868 <__TEXT_REGION_LENGTH__+0x700868>
    16f8:	90 93 69 08 	sts	0x0869, r25	; 0x800869 <__TEXT_REGION_LENGTH__+0x700869>
    16fc:	81 e0       	ldi	r24, 0x01	; 1
    16fe:	80 93 12 21 	sts	0x2112, r24	; 0x802112 <_500us_cca_index>
    1702:	0e 94 0d 03 	call	0x61a	; 0x61a <core_callback_t_before_exec>
    1706:	80 91 4c 08 	lds	r24, 0x084C	; 0x80084c <__TEXT_REGION_LENGTH__+0x70084c>
    170a:	80 61       	ori	r24, 0x10	; 16
    170c:	80 93 4c 08 	sts	0x084C, r24	; 0x80084c <__TEXT_REGION_LENGTH__+0x70084c>
    1710:	0e 94 0f 03 	call	0x61e	; 0x61e <core_callback_t_new_second>
    1714:	0e 94 11 03 	call	0x622	; 0x622 <core_callback_t_1ms>
    1718:	40 91 27 21 	lds	r20, 0x2127	; 0x802127 <commonbank+0xf>
    171c:	47 fd       	sbrc	r20, 7
    171e:	03 c0       	rjmp	.+6      	; 0x1726 <__vector_20+0x60>
    1720:	84 2f       	mov	r24, r20
    1722:	83 70       	andi	r24, 0x03	; 3
    1724:	b2 c0       	rjmp	.+356    	; 0x188a <__vector_20+0x1c4>
    1726:	84 2f       	mov	r24, r20
    1728:	83 70       	andi	r24, 0x03	; 3
    172a:	81 30       	cpi	r24, 0x01	; 1
    172c:	09 f0       	breq	.+2      	; 0x1730 <__vector_20+0x6a>
    172e:	ad c0       	rjmp	.+346    	; 0x188a <__vector_20+0x1c4>
    1730:	81 e2       	ldi	r24, 0x21	; 33
    1732:	91 e2       	ldi	r25, 0x21	; 33
    1734:	80 93 0d 21 	sts	0x210D, r24	; 0x80210d <reg_p>
    1738:	90 93 0e 21 	sts	0x210E, r25	; 0x80210e <reg_p+0x1>
    173c:	83 e0       	ldi	r24, 0x03	; 3
    173e:	80 93 f9 21 	sts	0x21F9, r24	; 0x8021f9 <reply_buff>
    1742:	8e e0       	ldi	r24, 0x0E	; 14
    1744:	80 93 fa 21 	sts	0x21FA, r24	; 0x8021fa <reply_buff+0x1>
    1748:	88 e0       	ldi	r24, 0x08	; 8
    174a:	80 93 fb 21 	sts	0x21FB, r24	; 0x8021fb <reply_buff+0x2>
    174e:	8f ef       	ldi	r24, 0xFF	; 255
    1750:	80 93 fc 21 	sts	0x21FC, r24	; 0x8021fc <reply_buff+0x3>
    1754:	84 e1       	ldi	r24, 0x14	; 20
    1756:	80 93 fd 21 	sts	0x21FD, r24	; 0x8021fd <reply_buff+0x4>
    175a:	80 91 4c 08 	lds	r24, 0x084C	; 0x80084c <__TEXT_REGION_LENGTH__+0x70084c>
    175e:	80 ff       	sbrs	r24, 0
    1760:	18 c0       	rjmp	.+48     	; 0x1792 <__vector_20+0xcc>
    1762:	80 91 21 21 	lds	r24, 0x2121	; 0x802121 <commonbank+0x9>
    1766:	90 91 22 21 	lds	r25, 0x2122	; 0x802122 <commonbank+0xa>
    176a:	a0 91 23 21 	lds	r26, 0x2123	; 0x802123 <commonbank+0xb>
    176e:	b0 91 24 21 	lds	r27, 0x2124	; 0x802124 <commonbank+0xc>
    1772:	01 96       	adiw	r24, 0x01	; 1
    1774:	a1 1d       	adc	r26, r1
    1776:	b1 1d       	adc	r27, r1
    1778:	80 93 fe 21 	sts	0x21FE, r24	; 0x8021fe <reply_buff+0x5>
    177c:	90 93 ff 21 	sts	0x21FF, r25	; 0x8021ff <reply_buff+0x6>
    1780:	a0 93 00 22 	sts	0x2200, r26	; 0x802200 <reply_buff+0x7>
    1784:	b0 93 01 22 	sts	0x2201, r27	; 0x802201 <reply_buff+0x8>
    1788:	80 91 60 08 	lds	r24, 0x0860	; 0x800860 <__TEXT_REGION_LENGTH__+0x700860>
    178c:	90 91 61 08 	lds	r25, 0x0861	; 0x800861 <__TEXT_REGION_LENGTH__+0x700861>
    1790:	26 c0       	rjmp	.+76     	; 0x17de <__vector_20+0x118>
    1792:	80 91 21 21 	lds	r24, 0x2121	; 0x802121 <commonbank+0x9>
    1796:	90 91 22 21 	lds	r25, 0x2122	; 0x802122 <commonbank+0xa>
    179a:	a0 91 23 21 	lds	r26, 0x2123	; 0x802123 <commonbank+0xb>
    179e:	b0 91 24 21 	lds	r27, 0x2124	; 0x802124 <commonbank+0xc>
    17a2:	80 93 fe 21 	sts	0x21FE, r24	; 0x8021fe <reply_buff+0x5>
    17a6:	90 93 ff 21 	sts	0x21FF, r25	; 0x8021ff <reply_buff+0x6>
    17aa:	a0 93 00 22 	sts	0x2200, r26	; 0x802200 <reply_buff+0x7>
    17ae:	b0 93 01 22 	sts	0x2201, r27	; 0x802201 <reply_buff+0x8>
    17b2:	20 91 60 08 	lds	r18, 0x0860	; 0x800860 <__TEXT_REGION_LENGTH__+0x700860>
    17b6:	30 91 61 08 	lds	r19, 0x0861	; 0x800861 <__TEXT_REGION_LENGTH__+0x700861>
    17ba:	50 91 12 21 	lds	r21, 0x2112	; 0x802112 <_500us_cca_index>
    17be:	50 3d       	cpi	r21, 0xD0	; 208
    17c0:	71 f4       	brne	.+28     	; 0x17de <__vector_20+0x118>
    17c2:	2f 30       	cpi	r18, 0x0F	; 15
    17c4:	31 05       	cpc	r19, r1
    17c6:	58 f4       	brcc	.+22     	; 0x17de <__vector_20+0x118>
    17c8:	01 96       	adiw	r24, 0x01	; 1
    17ca:	a1 1d       	adc	r26, r1
    17cc:	b1 1d       	adc	r27, r1
    17ce:	80 93 fe 21 	sts	0x21FE, r24	; 0x8021fe <reply_buff+0x5>
    17d2:	90 93 ff 21 	sts	0x21FF, r25	; 0x8021ff <reply_buff+0x6>
    17d6:	a0 93 00 22 	sts	0x2200, r26	; 0x802200 <reply_buff+0x7>
    17da:	b0 93 01 22 	sts	0x2201, r27	; 0x802201 <reply_buff+0x8>
    17de:	10 92 02 22 	sts	0x2202, r1	; 0x802202 <reply_buff+0x9>
    17e2:	10 92 03 22 	sts	0x2203, r1	; 0x802203 <reply_buff+0xa>
    17e6:	80 91 21 21 	lds	r24, 0x2121	; 0x802121 <commonbank+0x9>
    17ea:	90 91 22 21 	lds	r25, 0x2122	; 0x802122 <commonbank+0xa>
    17ee:	a0 91 23 21 	lds	r26, 0x2123	; 0x802123 <commonbank+0xb>
    17f2:	b0 91 24 21 	lds	r27, 0x2124	; 0x802124 <commonbank+0xc>
    17f6:	80 93 04 22 	sts	0x2204, r24	; 0x802204 <reply_buff+0xb>
    17fa:	90 93 05 22 	sts	0x2205, r25	; 0x802205 <reply_buff+0xc>
    17fe:	a0 93 06 22 	sts	0x2206, r26	; 0x802206 <reply_buff+0xd>
    1802:	b0 93 07 22 	sts	0x2207, r27	; 0x802207 <reply_buff+0xe>
    1806:	20 91 fa 21 	lds	r18, 0x21FA	; 0x8021fa <reply_buff+0x1>
    180a:	2e 5f       	subi	r18, 0xFE	; 254
    180c:	30 e0       	ldi	r19, 0x00	; 0
    180e:	21 50       	subi	r18, 0x01	; 1
    1810:	31 09       	sbc	r19, r1
    1812:	12 16       	cp	r1, r18
    1814:	13 06       	cpc	r1, r19
    1816:	84 f4       	brge	.+32     	; 0x1838 <__vector_20+0x172>
    1818:	50 e0       	ldi	r21, 0x00	; 0
    181a:	60 e0       	ldi	r22, 0x00	; 0
    181c:	80 e0       	ldi	r24, 0x00	; 0
    181e:	90 e0       	ldi	r25, 0x00	; 0
    1820:	fc 01       	movw	r30, r24
    1822:	e7 50       	subi	r30, 0x07	; 7
    1824:	fe 4d       	sbci	r31, 0xDE	; 222
    1826:	80 81       	ld	r24, Z
    1828:	68 0f       	add	r22, r24
    182a:	5f 5f       	subi	r21, 0xFF	; 255
    182c:	85 2f       	mov	r24, r21
    182e:	90 e0       	ldi	r25, 0x00	; 0
    1830:	82 17       	cp	r24, r18
    1832:	93 07       	cpc	r25, r19
    1834:	ac f3       	brlt	.-22     	; 0x1820 <__vector_20+0x15a>
    1836:	01 c0       	rjmp	.+2      	; 0x183a <__vector_20+0x174>
    1838:	60 e0       	ldi	r22, 0x00	; 0
    183a:	f9 01       	movw	r30, r18
    183c:	e7 50       	subi	r30, 0x07	; 7
    183e:	fe 4d       	sbci	r31, 0xDE	; 222
    1840:	60 83       	st	Z, r22
    1842:	80 91 99 20 	lds	r24, 0x2099	; 0x802099 <com_mode>
    1846:	81 30       	cpi	r24, 0x01	; 1
    1848:	29 f5       	brne	.+74     	; 0x1894 <__vector_20+0x1ce>
    184a:	83 e8       	ldi	r24, 0x83	; 131
    184c:	80 93 a2 00 	sts	0x00A2, r24	; 0x8000a2 <__TEXT_REGION_LENGTH__+0x7000a2>
    1850:	c0 91 a3 0a 	lds	r28, 0x0AA3	; 0x800aa3 <__TEXT_REGION_LENGTH__+0x700aa3>
    1854:	90 91 a3 0a 	lds	r25, 0x0AA3	; 0x800aa3 <__TEXT_REGION_LENGTH__+0x700aa3>
    1858:	9c 7f       	andi	r25, 0xFC	; 252
    185a:	90 93 a3 0a 	sts	0x0AA3, r25	; 0x800aa3 <__TEXT_REGION_LENGTH__+0x700aa3>
    185e:	60 91 fa 21 	lds	r22, 0x21FA	; 0x8021fa <reply_buff+0x1>
    1862:	6e 5f       	subi	r22, 0xFE	; 254
    1864:	89 ef       	ldi	r24, 0xF9	; 249
    1866:	91 e2       	ldi	r25, 0x21	; 33
    1868:	0e 94 84 10 	call	0x2108	; 0x2108 <hwbp_uart_xmit>
    186c:	90 91 a3 0a 	lds	r25, 0x0AA3	; 0x800aa3 <__TEXT_REGION_LENGTH__+0x700aa3>
    1870:	8c 2f       	mov	r24, r28
    1872:	83 70       	andi	r24, 0x03	; 3
    1874:	89 2b       	or	r24, r25
    1876:	80 93 a3 0a 	sts	0x0AA3, r24	; 0x800aa3 <__TEXT_REGION_LENGTH__+0x700aa3>
    187a:	87 e8       	ldi	r24, 0x87	; 135
    187c:	80 93 a2 00 	sts	0x00A2, r24	; 0x8000a2 <__TEXT_REGION_LENGTH__+0x7000a2>
    1880:	40 91 27 21 	lds	r20, 0x2127	; 0x802127 <commonbank+0xf>
    1884:	84 2f       	mov	r24, r20
    1886:	83 70       	andi	r24, 0x03	; 3
    1888:	00 c0       	rjmp	.+0      	; 0x188a <__vector_20+0x1c4>
    188a:	88 23       	and	r24, r24
    188c:	39 f0       	breq	.+14     	; 0x189c <__vector_20+0x1d6>
    188e:	81 30       	cpi	r24, 0x01	; 1
    1890:	19 f4       	brne	.+6      	; 0x1898 <__vector_20+0x1d2>
    1892:	00 c0       	rjmp	.+0      	; 0x1894 <__vector_20+0x1ce>
    1894:	92 e0       	ldi	r25, 0x02	; 2
    1896:	03 c0       	rjmp	.+6      	; 0x189e <__vector_20+0x1d8>
    1898:	91 e0       	ldi	r25, 0x01	; 1
    189a:	01 c0       	rjmp	.+2      	; 0x189e <__vector_20+0x1d8>
    189c:	94 e0       	ldi	r25, 0x04	; 4
    189e:	80 91 21 21 	lds	r24, 0x2121	; 0x802121 <commonbank+0x9>
    18a2:	89 23       	and	r24, r25
    18a4:	21 f0       	breq	.+8      	; 0x18ae <__vector_20+0x1e8>
    18a6:	80 e2       	ldi	r24, 0x20	; 32
    18a8:	80 93 66 06 	sts	0x0666, r24	; 0x800666 <__TEXT_REGION_LENGTH__+0x700666>
    18ac:	05 c0       	rjmp	.+10     	; 0x18b8 <__vector_20+0x1f2>
    18ae:	46 ff       	sbrs	r20, 6
    18b0:	03 c0       	rjmp	.+6      	; 0x18b8 <__vector_20+0x1f2>
    18b2:	80 e2       	ldi	r24, 0x20	; 32
    18b4:	80 93 65 06 	sts	0x0665, r24	; 0x800665 <__TEXT_REGION_LENGTH__+0x700665>
    18b8:	0e 94 0e 03 	call	0x61c	; 0x61c <core_callback_t_after_exec>
    18bc:	80 91 4c 08 	lds	r24, 0x084C	; 0x80084c <__TEXT_REGION_LENGTH__+0x70084c>
    18c0:	84 ff       	sbrs	r24, 4
    18c2:	06 c0       	rjmp	.+12     	; 0x18d0 <__vector_20+0x20a>
    18c4:	80 91 11 21 	lds	r24, 0x2111	; 0x802111 <shutdown_counter>
    18c8:	81 11       	cpse	r24, r1
    18ca:	02 c0       	rjmp	.+4      	; 0x18d0 <__vector_20+0x20a>
    18cc:	0e 94 52 0b 	call	0x16a4	; 0x16a4 <core_func_catastrophic_error_detected>
    18d0:	18 95       	reti

000018d2 <core_func_send_event>:
    18d2:	90 91 27 21 	lds	r25, 0x2127	; 0x802127 <commonbank+0xf>
    18d6:	93 70       	andi	r25, 0x03	; 3
    18d8:	91 30       	cpi	r25, 0x01	; 1
    18da:	09 f0       	breq	.+2      	; 0x18de <core_func_send_event+0xc>
    18dc:	08 95       	ret
    18de:	46 2f       	mov	r20, r22
    18e0:	63 e0       	ldi	r22, 0x03	; 3
    18e2:	0c 94 0b 08 	jmp	0x1016	; 0x1016 <xmit>

000018e6 <hwbp_write_common_reg>:
    18e6:	cf 92       	push	r12
    18e8:	df 92       	push	r13
    18ea:	ff 92       	push	r15
    18ec:	0f 93       	push	r16
    18ee:	1f 93       	push	r17
    18f0:	cf 93       	push	r28
    18f2:	df 93       	push	r29
    18f4:	00 d0       	rcall	.+0      	; 0x18f6 <hwbp_write_common_reg+0x10>
    18f6:	cd b7       	in	r28, 0x3d	; 61
    18f8:	de b7       	in	r29, 0x3e	; 62
    18fa:	8e 30       	cpi	r24, 0x0E	; 14
    18fc:	40 f4       	brcc	.+16     	; 0x190e <hwbp_write_common_reg+0x28>
    18fe:	e8 2f       	mov	r30, r24
    1900:	f0 e0       	ldi	r31, 0x00	; 0
    1902:	df 01       	movw	r26, r30
    1904:	ab 51       	subi	r26, 0x1B	; 27
    1906:	bf 4d       	sbci	r27, 0xDF	; 223
    1908:	9c 91       	ld	r25, X
    190a:	96 17       	cp	r25, r22
    190c:	59 f0       	breq	.+22     	; 0x1924 <hwbp_write_common_reg+0x3e>
    190e:	80 e0       	ldi	r24, 0x00	; 0
    1910:	0f 90       	pop	r0
    1912:	0f 90       	pop	r0
    1914:	df 91       	pop	r29
    1916:	cf 91       	pop	r28
    1918:	1f 91       	pop	r17
    191a:	0f 91       	pop	r16
    191c:	ff 90       	pop	r15
    191e:	df 90       	pop	r13
    1920:	cf 90       	pop	r12
    1922:	08 95       	ret
    1924:	ee 0f       	add	r30, r30
    1926:	ff 1f       	adc	r31, r31
    1928:	e7 53       	subi	r30, 0x37	; 55
    192a:	ff 4d       	sbci	r31, 0xDF	; 223
    192c:	60 81       	ld	r22, Z
    192e:	71 81       	ldd	r23, Z+1	; 0x01
    1930:	62 17       	cp	r22, r18
    1932:	73 07       	cpc	r23, r19
    1934:	61 f7       	brne	.-40     	; 0x190e <hwbp_write_common_reg+0x28>
    1936:	88 30       	cpi	r24, 0x08	; 8
    1938:	09 f4       	brne	.+2      	; 0x193c <hwbp_write_common_reg+0x56>
    193a:	82 c0       	rjmp	.+260    	; 0x1a40 <hwbp_write_common_reg+0x15a>
    193c:	8a 30       	cpi	r24, 0x0A	; 10
    193e:	e9 f1       	breq	.+122    	; 0x19ba <hwbp_write_common_reg+0xd4>
    1940:	8b 30       	cpi	r24, 0x0B	; 11
    1942:	21 f1       	breq	.+72     	; 0x198c <hwbp_write_common_reg+0xa6>
    1944:	8c 30       	cpi	r24, 0x0C	; 12
    1946:	09 f4       	brne	.+2      	; 0x194a <hwbp_write_common_reg+0x64>
    1948:	a4 c0       	rjmp	.+328    	; 0x1a92 <hwbp_write_common_reg+0x1ac>
    194a:	8d 30       	cpi	r24, 0x0D	; 13
    194c:	01 f7       	brne	.-64     	; 0x190e <hwbp_write_common_reg+0x28>
    194e:	fa 01       	movw	r30, r20
    1950:	80 81       	ld	r24, Z
    1952:	91 81       	ldd	r25, Z+1	; 0x01
    1954:	01 96       	adiw	r24, 0x01	; 1
    1956:	09 f4       	brne	.+2      	; 0x195a <hwbp_write_common_reg+0x74>
    1958:	c4 c0       	rjmp	.+392    	; 0x1ae2 <hwbp_write_common_reg+0x1fc>
    195a:	80 91 44 21 	lds	r24, 0x2144	; 0x802144 <enables_serial_number_update>
    195e:	88 23       	and	r24, r24
    1960:	b1 f2       	breq	.-84     	; 0x190e <hwbp_write_common_reg+0x28>
    1962:	fa 01       	movw	r30, r20
    1964:	60 81       	ld	r22, Z
    1966:	85 e0       	ldi	r24, 0x05	; 5
    1968:	90 e0       	ldi	r25, 0x00	; 0
    196a:	49 83       	std	Y+1, r20	; 0x01
    196c:	5a 83       	std	Y+2, r21	; 0x02
    196e:	0e 94 bf 07 	call	0xf7e	; 0xf7e <eeprom_wr_byte>
    1972:	49 81       	ldd	r20, Y+1	; 0x01
    1974:	5a 81       	ldd	r21, Y+2	; 0x02
    1976:	fa 01       	movw	r30, r20
    1978:	61 81       	ldd	r22, Z+1	; 0x01
    197a:	84 e0       	ldi	r24, 0x04	; 4
    197c:	90 e0       	ldi	r25, 0x00	; 0
    197e:	0e 94 bf 07 	call	0xf7e	; 0xf7e <eeprom_wr_byte>
    1982:	83 e0       	ldi	r24, 0x03	; 3
    1984:	80 93 11 21 	sts	0x2111, r24	; 0x802111 <shutdown_counter>
    1988:	81 e0       	ldi	r24, 0x01	; 1
    198a:	c2 cf       	rjmp	.-124    	; 0x1910 <hwbp_write_common_reg+0x2a>
    198c:	fa 01       	movw	r30, r20
    198e:	80 81       	ld	r24, Z
    1990:	81 30       	cpi	r24, 0x01	; 1
    1992:	09 f4       	brne	.+2      	; 0x1996 <hwbp_write_common_reg+0xb0>
    1994:	bb c0       	rjmp	.+374    	; 0x1b0c <hwbp_write_common_reg+0x226>
    1996:	82 30       	cpi	r24, 0x02	; 2
    1998:	09 f4       	brne	.+2      	; 0x199c <hwbp_write_common_reg+0xb6>
    199a:	a7 c0       	rjmp	.+334    	; 0x1aea <hwbp_write_common_reg+0x204>
    199c:	84 30       	cpi	r24, 0x04	; 4
    199e:	09 f4       	brne	.+2      	; 0x19a2 <hwbp_write_common_reg+0xbc>
    19a0:	c8 c0       	rjmp	.+400    	; 0x1b32 <hwbp_write_common_reg+0x24c>
    19a2:	88 30       	cpi	r24, 0x08	; 8
    19a4:	89 f7       	brne	.-30     	; 0x1988 <hwbp_write_common_reg+0xa2>
    19a6:	6f ef       	ldi	r22, 0xFF	; 255
    19a8:	87 e0       	ldi	r24, 0x07	; 7
    19aa:	90 e0       	ldi	r25, 0x00	; 0
    19ac:	0e 94 bf 07 	call	0xf7e	; 0xf7e <eeprom_wr_byte>
    19b0:	83 e0       	ldi	r24, 0x03	; 3
    19b2:	80 93 11 21 	sts	0x2111, r24	; 0x802111 <shutdown_counter>
    19b6:	81 e0       	ldi	r24, 0x01	; 1
    19b8:	ab cf       	rjmp	.-170    	; 0x1910 <hwbp_write_common_reg+0x2a>
    19ba:	fa 01       	movw	r30, r20
    19bc:	80 81       	ld	r24, Z
    19be:	86 fd       	sbrc	r24, 6
    19c0:	04 c0       	rjmp	.+8      	; 0x19ca <hwbp_write_common_reg+0xe4>
    19c2:	80 e2       	ldi	r24, 0x20	; 32
    19c4:	80 93 66 06 	sts	0x0666, r24	; 0x800666 <__TEXT_REGION_LENGTH__+0x700666>
    19c8:	80 81       	ld	r24, Z
    19ca:	10 91 27 21 	lds	r17, 0x2127	; 0x802127 <commonbank+0xf>
    19ce:	83 7f       	andi	r24, 0xF3	; 243
    19d0:	80 93 27 21 	sts	0x2127, r24	; 0x802127 <commonbank+0xf>
    19d4:	fa 01       	movw	r30, r20
    19d6:	80 81       	ld	r24, Z
    19d8:	85 ff       	sbrs	r24, 5
    19da:	41 c0       	rjmp	.+130    	; 0x1a5e <hwbp_write_common_reg+0x178>
    19dc:	15 ff       	sbrs	r17, 5
    19de:	78 c0       	rjmp	.+240    	; 0x1ad0 <hwbp_write_common_reg+0x1ea>
    19e0:	83 ff       	sbrs	r24, 3
    19e2:	10 c0       	rjmp	.+32     	; 0x1a04 <hwbp_write_common_reg+0x11e>
    19e4:	81 e0       	ldi	r24, 0x01	; 1
    19e6:	80 93 61 21 	sts	0x2161, r24	; 0x802161 <sending_registers>
    19ea:	10 92 5f 21 	sts	0x215F, r1	; 0x80215f <sending_register_add>
    19ee:	80 93 60 21 	sts	0x2160, r24	; 0x802160 <sending_com_registers>
    19f2:	10 92 5e 21 	sts	0x215E, r1	; 0x80215e <sending_com_register_add>
    19f6:	80 91 27 21 	lds	r24, 0x2127	; 0x802127 <commonbank+0xf>
    19fa:	87 7f       	andi	r24, 0xF7	; 247
    19fc:	80 93 27 21 	sts	0x2127, r24	; 0x802127 <commonbank+0xf>
    1a00:	fa 01       	movw	r30, r20
    1a02:	80 81       	ld	r24, Z
    1a04:	83 70       	andi	r24, 0x03	; 3
    1a06:	79 f4       	brne	.+30     	; 0x1a26 <hwbp_write_common_reg+0x140>
    1a08:	81 2f       	mov	r24, r17
    1a0a:	83 70       	andi	r24, 0x03	; 3
    1a0c:	09 f4       	brne	.+2      	; 0x1a10 <hwbp_write_common_reg+0x12a>
    1a0e:	bc cf       	rjmp	.-136    	; 0x1988 <hwbp_write_common_reg+0xa2>
    1a10:	10 92 61 21 	sts	0x2161, r1	; 0x802161 <sending_registers>
    1a14:	49 83       	std	Y+1, r20	; 0x01
    1a16:	5a 83       	std	Y+2, r21	; 0x02
    1a18:	0e 94 0a 03 	call	0x614	; 0x614 <core_callback_device_to_standby>
    1a1c:	49 81       	ldd	r20, Y+1	; 0x01
    1a1e:	5a 81       	ldd	r21, Y+2	; 0x02
    1a20:	fa 01       	movw	r30, r20
    1a22:	80 81       	ld	r24, Z
    1a24:	83 70       	andi	r24, 0x03	; 3
    1a26:	81 30       	cpi	r24, 0x01	; 1
    1a28:	29 f1       	breq	.+74     	; 0x1a74 <hwbp_write_common_reg+0x18e>
    1a2a:	83 30       	cpi	r24, 0x03	; 3
    1a2c:	09 f0       	breq	.+2      	; 0x1a30 <hwbp_write_common_reg+0x14a>
    1a2e:	ac cf       	rjmp	.-168    	; 0x1988 <hwbp_write_common_reg+0xa2>
    1a30:	13 70       	andi	r17, 0x03	; 3
    1a32:	13 30       	cpi	r17, 0x03	; 3
    1a34:	09 f4       	brne	.+2      	; 0x1a38 <hwbp_write_common_reg+0x152>
    1a36:	a8 cf       	rjmp	.-176    	; 0x1988 <hwbp_write_common_reg+0xa2>
    1a38:	0e 94 0c 03 	call	0x618	; 0x618 <core_callback_device_to_speed>
    1a3c:	81 e0       	ldi	r24, 0x01	; 1
    1a3e:	68 cf       	rjmp	.-304    	; 0x1910 <hwbp_write_common_reg+0x2a>
    1a40:	fa 01       	movw	r30, r20
    1a42:	80 81       	ld	r24, Z
    1a44:	91 81       	ldd	r25, Z+1	; 0x01
    1a46:	a2 81       	ldd	r26, Z+2	; 0x02
    1a48:	b3 81       	ldd	r27, Z+3	; 0x03
    1a4a:	80 93 21 21 	sts	0x2121, r24	; 0x802121 <commonbank+0x9>
    1a4e:	90 93 22 21 	sts	0x2122, r25	; 0x802122 <commonbank+0xa>
    1a52:	a0 93 23 21 	sts	0x2123, r26	; 0x802123 <commonbank+0xb>
    1a56:	b0 93 24 21 	sts	0x2124, r27	; 0x802124 <commonbank+0xc>
    1a5a:	81 e0       	ldi	r24, 0x01	; 1
    1a5c:	59 cf       	rjmp	.-334    	; 0x1910 <hwbp_write_common_reg+0x2a>
    1a5e:	15 ff       	sbrs	r17, 5
    1a60:	bf cf       	rjmp	.-130    	; 0x19e0 <hwbp_write_common_reg+0xfa>
    1a62:	49 83       	std	Y+1, r20	; 0x01
    1a64:	5a 83       	std	Y+2, r21	; 0x02
    1a66:	0e 94 81 01 	call	0x302	; 0x302 <core_callback_visualen_to_off>
    1a6a:	49 81       	ldd	r20, Y+1	; 0x01
    1a6c:	5a 81       	ldd	r21, Y+2	; 0x02
    1a6e:	fa 01       	movw	r30, r20
    1a70:	80 81       	ld	r24, Z
    1a72:	b6 cf       	rjmp	.-148    	; 0x19e0 <hwbp_write_common_reg+0xfa>
    1a74:	81 2f       	mov	r24, r17
    1a76:	83 70       	andi	r24, 0x03	; 3
    1a78:	81 30       	cpi	r24, 0x01	; 1
    1a7a:	09 f4       	brne	.+2      	; 0x1a7e <hwbp_write_common_reg+0x198>
    1a7c:	85 cf       	rjmp	.-246    	; 0x1988 <hwbp_write_common_reg+0xa2>
    1a7e:	49 83       	std	Y+1, r20	; 0x01
    1a80:	5a 83       	std	Y+2, r21	; 0x02
    1a82:	0e 94 0b 03 	call	0x616	; 0x616 <core_callback_device_to_active>
    1a86:	49 81       	ldd	r20, Y+1	; 0x01
    1a88:	5a 81       	ldd	r21, Y+2	; 0x02
    1a8a:	fa 01       	movw	r30, r20
    1a8c:	80 81       	ld	r24, Z
    1a8e:	83 70       	andi	r24, 0x03	; 3
    1a90:	cc cf       	rjmp	.-104    	; 0x1a2a <hwbp_write_common_reg+0x144>
    1a92:	8a 01       	movw	r16, r20
    1a94:	87 e0       	ldi	r24, 0x07	; 7
    1a96:	c8 2e       	mov	r12, r24
    1a98:	d1 2c       	mov	r13, r1
    1a9a:	f1 2c       	mov	r15, r1
    1a9c:	0d c0       	rjmp	.+26     	; 0x1ab8 <hwbp_write_common_reg+0x1d2>
    1a9e:	f1 10       	cpse	r15, r1
    1aa0:	10 c0       	rjmp	.+32     	; 0x1ac2 <hwbp_write_common_reg+0x1dc>
    1aa2:	c6 01       	movw	r24, r12
    1aa4:	0e 94 bf 07 	call	0xf7e	; 0xf7e <eeprom_wr_byte>
    1aa8:	ff ef       	ldi	r31, 0xFF	; 255
    1aaa:	cf 1a       	sub	r12, r31
    1aac:	df 0a       	sbc	r13, r31
    1aae:	20 e2       	ldi	r18, 0x20	; 32
    1ab0:	c2 16       	cp	r12, r18
    1ab2:	d1 04       	cpc	r13, r1
    1ab4:	09 f4       	brne	.+2      	; 0x1ab8 <hwbp_write_common_reg+0x1d2>
    1ab6:	65 cf       	rjmp	.-310    	; 0x1982 <hwbp_write_common_reg+0x9c>
    1ab8:	f8 01       	movw	r30, r16
    1aba:	61 91       	ld	r22, Z+
    1abc:	8f 01       	movw	r16, r30
    1abe:	61 11       	cpse	r22, r1
    1ac0:	ee cf       	rjmp	.-36     	; 0x1a9e <hwbp_write_common_reg+0x1b8>
    1ac2:	60 e0       	ldi	r22, 0x00	; 0
    1ac4:	c6 01       	movw	r24, r12
    1ac6:	0e 94 bf 07 	call	0xf7e	; 0xf7e <eeprom_wr_byte>
    1aca:	ff 24       	eor	r15, r15
    1acc:	f3 94       	inc	r15
    1ace:	ec cf       	rjmp	.-40     	; 0x1aa8 <hwbp_write_common_reg+0x1c2>
    1ad0:	49 83       	std	Y+1, r20	; 0x01
    1ad2:	5a 83       	std	Y+2, r21	; 0x02
    1ad4:	0e 94 80 01 	call	0x300	; 0x300 <core_callback_visualen_to_on>
    1ad8:	49 81       	ldd	r20, Y+1	; 0x01
    1ada:	5a 81       	ldd	r21, Y+2	; 0x02
    1adc:	fa 01       	movw	r30, r20
    1ade:	80 81       	ld	r24, Z
    1ae0:	7f cf       	rjmp	.-258    	; 0x19e0 <hwbp_write_common_reg+0xfa>
    1ae2:	81 e0       	ldi	r24, 0x01	; 1
    1ae4:	80 93 44 21 	sts	0x2144, r24	; 0x802144 <enables_serial_number_update>
    1ae8:	13 cf       	rjmp	.-474    	; 0x1910 <hwbp_write_common_reg+0x2a>
    1aea:	80 e0       	ldi	r24, 0x00	; 0
    1aec:	90 e0       	ldi	r25, 0x00	; 0
    1aee:	49 83       	std	Y+1, r20	; 0x01
    1af0:	5a 83       	std	Y+2, r21	; 0x02
    1af2:	0e 94 aa 07 	call	0xf54	; 0xf54 <eeprom_rd_byte>
    1af6:	49 81       	ldd	r20, Y+1	; 0x01
    1af8:	5a 81       	ldd	r21, Y+2	; 0x02
    1afa:	8e 3e       	cpi	r24, 0xEE	; 238
    1afc:	09 f0       	breq	.+2      	; 0x1b00 <hwbp_write_common_reg+0x21a>
    1afe:	07 cf       	rjmp	.-498    	; 0x190e <hwbp_write_common_reg+0x28>
    1b00:	83 e0       	ldi	r24, 0x03	; 3
    1b02:	80 93 11 21 	sts	0x2111, r24	; 0x802111 <shutdown_counter>
    1b06:	fa 01       	movw	r30, r20
    1b08:	80 81       	ld	r24, Z
    1b0a:	48 cf       	rjmp	.-368    	; 0x199c <hwbp_write_common_reg+0xb6>
    1b0c:	85 e4       	ldi	r24, 0x45	; 69
    1b0e:	91 e2       	ldi	r25, 0x21	; 33
    1b10:	49 83       	std	Y+1, r20	; 0x01
    1b12:	5a 83       	std	Y+2, r21	; 0x02
    1b14:	0e 94 e3 07 	call	0xfc6	; 0xfc6 <write_device_name_to_eeprom>
    1b18:	6f ed       	ldi	r22, 0xDF	; 223
    1b1a:	80 e0       	ldi	r24, 0x00	; 0
    1b1c:	90 e0       	ldi	r25, 0x00	; 0
    1b1e:	0e 94 bf 07 	call	0xf7e	; 0xf7e <eeprom_wr_byte>
    1b22:	83 e0       	ldi	r24, 0x03	; 3
    1b24:	80 93 11 21 	sts	0x2111, r24	; 0x802111 <shutdown_counter>
    1b28:	49 81       	ldd	r20, Y+1	; 0x01
    1b2a:	5a 81       	ldd	r21, Y+2	; 0x02
    1b2c:	fa 01       	movw	r30, r20
    1b2e:	80 81       	ld	r24, Z
    1b30:	32 cf       	rjmp	.-412    	; 0x1996 <hwbp_write_common_reg+0xb0>
    1b32:	6e ee       	ldi	r22, 0xEE	; 238
    1b34:	80 e0       	ldi	r24, 0x00	; 0
    1b36:	90 e0       	ldi	r25, 0x00	; 0
    1b38:	49 83       	std	Y+1, r20	; 0x01
    1b3a:	5a 83       	std	Y+2, r21	; 0x02
    1b3c:	0e 94 bf 07 	call	0xf7e	; 0xf7e <eeprom_wr_byte>
    1b40:	60 91 27 21 	lds	r22, 0x2127	; 0x802127 <commonbank+0xf>
    1b44:	81 e0       	ldi	r24, 0x01	; 1
    1b46:	90 e0       	ldi	r25, 0x00	; 0
    1b48:	0e 94 bf 07 	call	0xf7e	; 0xf7e <eeprom_wr_byte>
    1b4c:	80 91 16 21 	lds	r24, 0x2116	; 0x802116 <core_app_mem_size_to_save>
    1b50:	90 91 17 21 	lds	r25, 0x2117	; 0x802117 <core_app_mem_size_to_save+0x1>
    1b54:	49 81       	ldd	r20, Y+1	; 0x01
    1b56:	5a 81       	ldd	r21, Y+2	; 0x02
    1b58:	89 2b       	or	r24, r25
    1b5a:	d1 f0       	breq	.+52     	; 0x1b90 <hwbp_write_common_reg+0x2aa>
    1b5c:	00 e0       	ldi	r16, 0x00	; 0
    1b5e:	10 e0       	ldi	r17, 0x00	; 0
    1b60:	e0 91 14 21 	lds	r30, 0x2114	; 0x802114 <core_pointer_to_app_regs>
    1b64:	f0 91 15 21 	lds	r31, 0x2115	; 0x802115 <core_pointer_to_app_regs+0x1>
    1b68:	e0 0f       	add	r30, r16
    1b6a:	f1 1f       	adc	r31, r17
    1b6c:	60 81       	ld	r22, Z
    1b6e:	c8 01       	movw	r24, r16
    1b70:	80 96       	adiw	r24, 0x20	; 32
    1b72:	49 83       	std	Y+1, r20	; 0x01
    1b74:	5a 83       	std	Y+2, r21	; 0x02
    1b76:	0e 94 bf 07 	call	0xf7e	; 0xf7e <eeprom_wr_byte>
    1b7a:	0f 5f       	subi	r16, 0xFF	; 255
    1b7c:	1f 4f       	sbci	r17, 0xFF	; 255
    1b7e:	80 91 16 21 	lds	r24, 0x2116	; 0x802116 <core_app_mem_size_to_save>
    1b82:	90 91 17 21 	lds	r25, 0x2117	; 0x802117 <core_app_mem_size_to_save+0x1>
    1b86:	49 81       	ldd	r20, Y+1	; 0x01
    1b88:	5a 81       	ldd	r21, Y+2	; 0x02
    1b8a:	08 17       	cp	r16, r24
    1b8c:	19 07       	cpc	r17, r25
    1b8e:	40 f3       	brcs	.-48     	; 0x1b60 <hwbp_write_common_reg+0x27a>
    1b90:	83 e0       	ldi	r24, 0x03	; 3
    1b92:	80 93 11 21 	sts	0x2111, r24	; 0x802111 <shutdown_counter>
    1b96:	fa 01       	movw	r30, r20
    1b98:	80 81       	ld	r24, Z
    1b9a:	03 cf       	rjmp	.-506    	; 0x19a2 <hwbp_write_common_reg+0xbc>

00001b9c <__vector_22>:
    1b9c:	0e 94 e4 11 	call	0x23c8	; 0x23c8 <trigger_sync_timer>
    1ba0:	0e 94 0d 03 	call	0x61a	; 0x61a <core_callback_t_before_exec>
    1ba4:	80 91 68 08 	lds	r24, 0x0868	; 0x800868 <__TEXT_REGION_LENGTH__+0x700868>
    1ba8:	90 91 69 08 	lds	r25, 0x0869	; 0x800869 <__TEXT_REGION_LENGTH__+0x700869>
    1bac:	e0 91 12 21 	lds	r30, 0x2112	; 0x802112 <_500us_cca_index>
    1bb0:	21 e0       	ldi	r18, 0x01	; 1
    1bb2:	2e 0f       	add	r18, r30
    1bb4:	20 93 12 21 	sts	0x2112, r18	; 0x802112 <_500us_cca_index>
    1bb8:	e7 70       	andi	r30, 0x07	; 7
    1bba:	f0 e0       	ldi	r31, 0x00	; 0
    1bbc:	eb 55       	subi	r30, 0x5B	; 91
    1bbe:	ff 4d       	sbci	r31, 0xDF	; 223
    1bc0:	30 81       	ld	r19, Z
    1bc2:	83 0f       	add	r24, r19
    1bc4:	91 1d       	adc	r25, r1
    1bc6:	80 93 68 08 	sts	0x0868, r24	; 0x800868 <__TEXT_REGION_LENGTH__+0x700868>
    1bca:	90 93 69 08 	sts	0x0869, r25	; 0x800869 <__TEXT_REGION_LENGTH__+0x700869>
    1bce:	20 fd       	sbrc	r18, 0
    1bd0:	2d c1       	rjmp	.+602    	; 0x1e2c <__vector_22+0x290>
    1bd2:	80 91 99 20 	lds	r24, 0x2099	; 0x802099 <com_mode>
    1bd6:	81 30       	cpi	r24, 0x01	; 1
    1bd8:	71 f4       	brne	.+28     	; 0x1bf6 <__vector_22+0x5a>
    1bda:	82 e0       	ldi	r24, 0x02	; 2
    1bdc:	80 93 85 06 	sts	0x0685, r24	; 0x800685 <__TEXT_REGION_LENGTH__+0x700685>
    1be0:	83 e8       	ldi	r24, 0x83	; 131
    1be2:	80 93 a2 00 	sts	0x00A2, r24	; 0x8000a2 <__TEXT_REGION_LENGTH__+0x7000a2>
    1be6:	80 91 a3 0a 	lds	r24, 0x0AA3	; 0x800aa3 <__TEXT_REGION_LENGTH__+0x700aa3>
    1bea:	8f 7c       	andi	r24, 0xCF	; 207
    1bec:	80 93 a3 0a 	sts	0x0AA3, r24	; 0x800aa3 <__TEXT_REGION_LENGTH__+0x700aa3>
    1bf0:	87 e8       	ldi	r24, 0x87	; 135
    1bf2:	80 93 a2 00 	sts	0x00A2, r24	; 0x8000a2 <__TEXT_REGION_LENGTH__+0x7000a2>
    1bf6:	80 91 68 21 	lds	r24, 0x2168	; 0x802168 <rx_timeout>
    1bfa:	81 11       	cpse	r24, r1
    1bfc:	03 c0       	rjmp	.+6      	; 0x1c04 <__vector_22+0x68>
    1bfe:	80 91 67 21 	lds	r24, 0x2167	; 0x802167 <rx_cmd_ready>
    1c02:	0f c0       	rjmp	.+30     	; 0x1c22 <__vector_22+0x86>
    1c04:	81 50       	subi	r24, 0x01	; 1
    1c06:	80 93 68 21 	sts	0x2168, r24	; 0x802168 <rx_timeout>
    1c0a:	88 23       	and	r24, r24
    1c0c:	19 f0       	breq	.+6      	; 0x1c14 <__vector_22+0x78>
    1c0e:	80 91 67 21 	lds	r24, 0x2167	; 0x802167 <rx_cmd_ready>
    1c12:	07 c0       	rjmp	.+14     	; 0x1c22 <__vector_22+0x86>
    1c14:	10 92 68 21 	sts	0x2168, r1	; 0x802168 <rx_timeout>
    1c18:	10 92 67 21 	sts	0x2167, r1	; 0x802167 <rx_cmd_ready>
    1c1c:	10 92 62 21 	sts	0x2162, r1	; 0x802162 <hwbp_uart_rx_pointer>
    1c20:	a1 c0       	rjmp	.+322    	; 0x1d64 <__vector_22+0x1c8>
    1c22:	88 23       	and	r24, r24
    1c24:	09 f4       	brne	.+2      	; 0x1c28 <__vector_22+0x8c>
    1c26:	9e c0       	rjmp	.+316    	; 0x1d64 <__vector_22+0x1c8>
    1c28:	a0 91 f9 22 	lds	r26, 0x22F9	; 0x8022f9 <cmd_len>
    1c2c:	b0 91 fa 22 	lds	r27, 0x22FA	; 0x8022fa <cmd_len+0x1>
    1c30:	80 91 fc 24 	lds	r24, 0x24FC	; 0x8024fc <rxbuff_hwbp_uart+0x1>
    1c34:	8f 3f       	cpi	r24, 0xFF	; 255
    1c36:	59 f0       	breq	.+22     	; 0x1c4e <__vector_22+0xb2>
    1c38:	10 91 fd 24 	lds	r17, 0x24FD	; 0x8024fd <rxbuff_hwbp_uart+0x2>
    1c3c:	50 91 fe 24 	lds	r21, 0x24FE	; 0x8024fe <rxbuff_hwbp_uart+0x3>
    1c40:	00 91 ff 24 	lds	r16, 0x24FF	; 0x8024ff <rxbuff_hwbp_uart+0x4>
    1c44:	30 e0       	ldi	r19, 0x00	; 0
    1c46:	e3 2e       	mov	r14, r19
    1c48:	35 e2       	ldi	r19, 0x25	; 37
    1c4a:	f3 2e       	mov	r15, r19
    1c4c:	0a c0       	rjmp	.+20     	; 0x1c62 <__vector_22+0xc6>
    1c4e:	10 91 ff 24 	lds	r17, 0x24FF	; 0x8024ff <rxbuff_hwbp_uart+0x4>
    1c52:	50 91 00 25 	lds	r21, 0x2500	; 0x802500 <rxbuff_hwbp_uart+0x5>
    1c56:	00 91 01 25 	lds	r16, 0x2501	; 0x802501 <rxbuff_hwbp_uart+0x6>
    1c5a:	22 e0       	ldi	r18, 0x02	; 2
    1c5c:	e2 2e       	mov	r14, r18
    1c5e:	25 e2       	ldi	r18, 0x25	; 37
    1c60:	f2 2e       	mov	r15, r18
    1c62:	fd 01       	movw	r30, r26
    1c64:	31 96       	adiw	r30, 0x01	; 1
    1c66:	81 f0       	breq	.+32     	; 0x1c88 <__vector_22+0xec>
    1c68:	90 e0       	ldi	r25, 0x00	; 0
    1c6a:	40 e0       	ldi	r20, 0x00	; 0
    1c6c:	20 e0       	ldi	r18, 0x00	; 0
    1c6e:	30 e0       	ldi	r19, 0x00	; 0
    1c70:	e9 01       	movw	r28, r18
    1c72:	c5 50       	subi	r28, 0x05	; 5
    1c74:	db 4d       	sbci	r29, 0xDB	; 219
    1c76:	28 81       	ld	r18, Y
    1c78:	42 0f       	add	r20, r18
    1c7a:	9f 5f       	subi	r25, 0xFF	; 255
    1c7c:	29 2f       	mov	r18, r25
    1c7e:	30 e0       	ldi	r19, 0x00	; 0
    1c80:	2e 17       	cp	r18, r30
    1c82:	3f 07       	cpc	r19, r31
    1c84:	a8 f3       	brcs	.-22     	; 0x1c70 <__vector_22+0xd4>
    1c86:	01 c0       	rjmp	.+2      	; 0x1c8a <__vector_22+0xee>
    1c88:	40 e0       	ldi	r20, 0x00	; 0
    1c8a:	e5 50       	subi	r30, 0x05	; 5
    1c8c:	fb 4d       	sbci	r31, 0xDB	; 219
    1c8e:	90 81       	ld	r25, Z
    1c90:	49 13       	cpse	r20, r25
    1c92:	66 c0       	rjmp	.+204    	; 0x1d60 <__vector_22+0x1c4>
    1c94:	5f 3f       	cpi	r21, 0xFF	; 255
    1c96:	09 f0       	breq	.+2      	; 0x1c9a <__vector_22+0xfe>
    1c98:	63 c0       	rjmp	.+198    	; 0x1d60 <__vector_22+0x1c4>
    1c9a:	90 91 fb 24 	lds	r25, 0x24FB	; 0x8024fb <rxbuff_hwbp_uart>
    1c9e:	91 30       	cpi	r25, 0x01	; 1
    1ca0:	99 f5       	brne	.+102    	; 0x1d08 <__vector_22+0x16c>
    1ca2:	1d 31       	cpi	r17, 0x1D	; 29
    1ca4:	b0 f4       	brcc	.+44     	; 0x1cd2 <__vector_22+0x136>
    1ca6:	1e 30       	cpi	r17, 0x0E	; 14
    1ca8:	08 f0       	brcs	.+2      	; 0x1cac <__vector_22+0x110>
    1caa:	26 c1       	rjmp	.+588    	; 0x1ef8 <__vector_22+0x35c>
    1cac:	e1 2f       	mov	r30, r17
    1cae:	f0 e0       	ldi	r31, 0x00	; 0
    1cb0:	eb 51       	subi	r30, 0x1B	; 27
    1cb2:	ff 4d       	sbci	r31, 0xDF	; 223
    1cb4:	90 81       	ld	r25, Z
    1cb6:	09 13       	cpse	r16, r25
    1cb8:	1f c1       	rjmp	.+574    	; 0x1ef8 <__vector_22+0x35c>
    1cba:	19 30       	cpi	r17, 0x09	; 9
    1cbc:	09 f0       	breq	.+2      	; 0x1cc0 <__vector_22+0x124>
    1cbe:	17 c1       	rjmp	.+558    	; 0x1eee <__vector_22+0x352>
    1cc0:	80 91 60 08 	lds	r24, 0x0860	; 0x800860 <__TEXT_REGION_LENGTH__+0x700860>
    1cc4:	90 91 61 08 	lds	r25, 0x0861	; 0x800861 <__TEXT_REGION_LENGTH__+0x700861>
    1cc8:	80 93 25 21 	sts	0x2125, r24	; 0x802125 <commonbank+0xd>
    1ccc:	90 93 26 21 	sts	0x2126, r25	; 0x802126 <commonbank+0xe>
    1cd0:	0e c1       	rjmp	.+540    	; 0x1eee <__vector_22+0x352>
    1cd2:	60 2f       	mov	r22, r16
    1cd4:	81 2f       	mov	r24, r17
    1cd6:	0e 94 ad 03 	call	0x75a	; 0x75a <core_read_app_register>
    1cda:	90 91 27 21 	lds	r25, 0x2127	; 0x802127 <commonbank+0xf>
    1cde:	94 fd       	sbrc	r25, 4
    1ce0:	3f c0       	rjmp	.+126    	; 0x1d60 <__vector_22+0x1c4>
    1ce2:	81 11       	cpse	r24, r1
    1ce4:	03 c0       	rjmp	.+6      	; 0x1cec <__vector_22+0x150>
    1ce6:	80 91 fc 24 	lds	r24, 0x24FC	; 0x8024fc <rxbuff_hwbp_uart+0x1>
    1cea:	06 c0       	rjmp	.+12     	; 0x1cf8 <__vector_22+0x15c>
    1cec:	41 e0       	ldi	r20, 0x01	; 1
    1cee:	61 e0       	ldi	r22, 0x01	; 1
    1cf0:	81 2f       	mov	r24, r17
    1cf2:	0e 94 0b 08 	call	0x1016	; 0x1016 <xmit>
    1cf6:	34 c0       	rjmp	.+104    	; 0x1d60 <__vector_22+0x1c4>
    1cf8:	90 e0       	ldi	r25, 0x00	; 0
    1cfa:	88 3f       	cpi	r24, 0xF8	; 248
    1cfc:	91 05       	cpc	r25, r1
    1cfe:	84 f5       	brge	.+96     	; 0x1d60 <__vector_22+0x1c4>
    1d00:	89 e0       	ldi	r24, 0x09	; 9
    1d02:	0e 94 16 09 	call	0x122c	; 0x122c <xmit_error.part.0.constprop.4>
    1d06:	2c c0       	rjmp	.+88     	; 0x1d60 <__vector_22+0x1c4>
    1d08:	cd 01       	movw	r24, r26
    1d0a:	04 97       	sbiw	r24, 0x04	; 4
    1d0c:	20 2f       	mov	r18, r16
    1d0e:	2f 70       	andi	r18, 0x0F	; 15
    1d10:	62 2f       	mov	r22, r18
    1d12:	70 e0       	ldi	r23, 0x00	; 0
    1d14:	0e 94 04 14 	call	0x2808	; 0x2808 <__udivmodhi4>
    1d18:	1d 31       	cpi	r17, 0x1D	; 29
    1d1a:	38 f4       	brcc	.+14     	; 0x1d2a <__vector_22+0x18e>
    1d1c:	9b 01       	movw	r18, r22
    1d1e:	a7 01       	movw	r20, r14
    1d20:	60 2f       	mov	r22, r16
    1d22:	81 2f       	mov	r24, r17
    1d24:	0e 94 73 0c 	call	0x18e6	; 0x18e6 <hwbp_write_common_reg>
    1d28:	06 c0       	rjmp	.+12     	; 0x1d36 <__vector_22+0x19a>
    1d2a:	9b 01       	movw	r18, r22
    1d2c:	a7 01       	movw	r20, r14
    1d2e:	60 2f       	mov	r22, r16
    1d30:	81 2f       	mov	r24, r17
    1d32:	0e 94 c6 03 	call	0x78c	; 0x78c <core_write_app_register>
    1d36:	90 91 27 21 	lds	r25, 0x2127	; 0x802127 <commonbank+0xf>
    1d3a:	94 fd       	sbrc	r25, 4
    1d3c:	11 c0       	rjmp	.+34     	; 0x1d60 <__vector_22+0x1c4>
    1d3e:	88 23       	and	r24, r24
    1d40:	31 f0       	breq	.+12     	; 0x1d4e <__vector_22+0x1b2>
    1d42:	41 e0       	ldi	r20, 0x01	; 1
    1d44:	62 e0       	ldi	r22, 0x02	; 2
    1d46:	81 2f       	mov	r24, r17
    1d48:	0e 94 0b 08 	call	0x1016	; 0x1016 <xmit>
    1d4c:	09 c0       	rjmp	.+18     	; 0x1d60 <__vector_22+0x1c4>
    1d4e:	80 91 fc 24 	lds	r24, 0x24FC	; 0x8024fc <rxbuff_hwbp_uart+0x1>
    1d52:	90 e0       	ldi	r25, 0x00	; 0
    1d54:	88 3f       	cpi	r24, 0xF8	; 248
    1d56:	91 05       	cpc	r25, r1
    1d58:	1c f4       	brge	.+6      	; 0x1d60 <__vector_22+0x1c4>
    1d5a:	8a e0       	ldi	r24, 0x0A	; 10
    1d5c:	0e 94 16 09 	call	0x122c	; 0x122c <xmit_error.part.0.constprop.4>
    1d60:	10 92 67 21 	sts	0x2167, r1	; 0x802167 <rx_cmd_ready>
    1d64:	80 91 99 20 	lds	r24, 0x2099	; 0x802099 <com_mode>
    1d68:	81 30       	cpi	r24, 0x01	; 1
    1d6a:	09 f0       	breq	.+2      	; 0x1d6e <__vector_22+0x1d2>
    1d6c:	5c c0       	rjmp	.+184    	; 0x1e26 <__vector_22+0x28a>
    1d6e:	80 91 88 06 	lds	r24, 0x0688	; 0x800688 <__TEXT_REGION_LENGTH__+0x700688>
    1d72:	80 ff       	sbrs	r24, 0
    1d74:	46 c0       	rjmp	.+140    	; 0x1e02 <__vector_22+0x266>
    1d76:	80 91 0f 21 	lds	r24, 0x210F	; 0x80210f <CTS_timeout_counter>
    1d7a:	90 91 10 21 	lds	r25, 0x2110	; 0x802110 <CTS_timeout_counter+0x1>
    1d7e:	01 96       	adiw	r24, 0x01	; 1
    1d80:	88 3b       	cpi	r24, 0xB8	; 184
    1d82:	2b e0       	ldi	r18, 0x0B	; 11
    1d84:	92 07       	cpc	r25, r18
    1d86:	29 f0       	breq	.+10     	; 0x1d92 <__vector_22+0x1f6>
    1d88:	80 93 0f 21 	sts	0x210F, r24	; 0x80210f <CTS_timeout_counter>
    1d8c:	90 93 10 21 	sts	0x2110, r25	; 0x802110 <CTS_timeout_counter+0x1>
    1d90:	3c c0       	rjmp	.+120    	; 0x1e0a <__vector_22+0x26e>
    1d92:	10 92 0f 21 	sts	0x210F, r1	; 0x80210f <CTS_timeout_counter>
    1d96:	10 92 10 21 	sts	0x2110, r1	; 0x802110 <CTS_timeout_counter+0x1>
    1d9a:	80 91 27 21 	lds	r24, 0x2127	; 0x802127 <commonbank+0xf>
    1d9e:	98 2f       	mov	r25, r24
    1da0:	93 70       	andi	r25, 0x03	; 3
    1da2:	91 30       	cpi	r25, 0x01	; 1
    1da4:	e9 f4       	brne	.+58     	; 0x1de0 <__vector_22+0x244>
    1da6:	86 fd       	sbrc	r24, 6
    1da8:	03 c0       	rjmp	.+6      	; 0x1db0 <__vector_22+0x214>
    1daa:	90 e2       	ldi	r25, 0x20	; 32
    1dac:	90 93 66 06 	sts	0x0666, r25	; 0x800666 <__TEXT_REGION_LENGTH__+0x700666>
    1db0:	98 2f       	mov	r25, r24
    1db2:	90 7f       	andi	r25, 0xF0	; 240
    1db4:	90 93 27 21 	sts	0x2127, r25	; 0x802127 <commonbank+0xf>
    1db8:	83 ff       	sbrs	r24, 3
    1dba:	0b c0       	rjmp	.+22     	; 0x1dd2 <__vector_22+0x236>
    1dbc:	10 92 5f 21 	sts	0x215F, r1	; 0x80215f <sending_register_add>
    1dc0:	81 e0       	ldi	r24, 0x01	; 1
    1dc2:	80 93 60 21 	sts	0x2160, r24	; 0x802160 <sending_com_registers>
    1dc6:	10 92 5e 21 	sts	0x215E, r1	; 0x80215e <sending_com_register_add>
    1dca:	89 2f       	mov	r24, r25
    1dcc:	87 7f       	andi	r24, 0xF7	; 247
    1dce:	80 93 27 21 	sts	0x2127, r24	; 0x802127 <commonbank+0xf>
    1dd2:	10 92 61 21 	sts	0x2161, r1	; 0x802161 <sending_registers>
    1dd6:	0e 94 0a 03 	call	0x614	; 0x614 <core_callback_device_to_standby>
    1dda:	90 91 99 20 	lds	r25, 0x2099	; 0x802099 <com_mode>
    1dde:	01 c0       	rjmp	.+2      	; 0x1de2 <__vector_22+0x246>
    1de0:	91 e0       	ldi	r25, 0x01	; 1
    1de2:	10 92 65 21 	sts	0x2165, r1	; 0x802165 <hwbp_uart_tail>
    1de6:	10 92 66 21 	sts	0x2166, r1	; 0x802166 <hwbp_uart_tail+0x1>
    1dea:	10 92 63 21 	sts	0x2163, r1	; 0x802163 <hwbp_uart_head>
    1dee:	10 92 64 21 	sts	0x2164, r1	; 0x802164 <hwbp_uart_head+0x1>
    1df2:	80 91 a3 0a 	lds	r24, 0x0AA3	; 0x800aa3 <__TEXT_REGION_LENGTH__+0x700aa3>
    1df6:	8c 7f       	andi	r24, 0xFC	; 252
    1df8:	80 93 a3 0a 	sts	0x0AA3, r24	; 0x800aa3 <__TEXT_REGION_LENGTH__+0x700aa3>
    1dfc:	91 30       	cpi	r25, 0x01	; 1
    1dfe:	29 f0       	breq	.+10     	; 0x1e0a <__vector_22+0x26e>
    1e00:	12 c0       	rjmp	.+36     	; 0x1e26 <__vector_22+0x28a>
    1e02:	10 92 0f 21 	sts	0x210F, r1	; 0x80210f <CTS_timeout_counter>
    1e06:	10 92 10 21 	sts	0x2110, r1	; 0x802110 <CTS_timeout_counter+0x1>
    1e0a:	83 e8       	ldi	r24, 0x83	; 131
    1e0c:	80 93 a2 00 	sts	0x00A2, r24	; 0x8000a2 <__TEXT_REGION_LENGTH__+0x7000a2>
    1e10:	80 91 a3 0a 	lds	r24, 0x0AA3	; 0x800aa3 <__TEXT_REGION_LENGTH__+0x700aa3>
    1e14:	80 63       	ori	r24, 0x30	; 48
    1e16:	80 93 a3 0a 	sts	0x0AA3, r24	; 0x800aa3 <__TEXT_REGION_LENGTH__+0x700aa3>
    1e1a:	87 e8       	ldi	r24, 0x87	; 135
    1e1c:	80 93 a2 00 	sts	0x00A2, r24	; 0x8000a2 <__TEXT_REGION_LENGTH__+0x7000a2>
    1e20:	82 e0       	ldi	r24, 0x02	; 2
    1e22:	80 93 86 06 	sts	0x0686, r24	; 0x800686 <__TEXT_REGION_LENGTH__+0x700686>
    1e26:	0e 94 10 03 	call	0x620	; 0x620 <core_callback_t_500us>
    1e2a:	02 c0       	rjmp	.+4      	; 0x1e30 <__vector_22+0x294>
    1e2c:	0e 94 11 03 	call	0x622	; 0x622 <core_callback_t_1ms>
    1e30:	80 91 11 21 	lds	r24, 0x2111	; 0x802111 <shutdown_counter>
    1e34:	88 23       	and	r24, r24
    1e36:	39 f0       	breq	.+14     	; 0x1e46 <__vector_22+0x2aa>
    1e38:	81 50       	subi	r24, 0x01	; 1
    1e3a:	80 93 11 21 	sts	0x2111, r24	; 0x802111 <shutdown_counter>
    1e3e:	81 11       	cpse	r24, r1
    1e40:	02 c0       	rjmp	.+4      	; 0x1e46 <__vector_22+0x2aa>
    1e42:	0e 94 6c 06 	call	0xcd8	; 0xcd8 <wdt_reset_device>
    1e46:	80 91 60 21 	lds	r24, 0x2160	; 0x802160 <sending_com_registers>
    1e4a:	88 23       	and	r24, r24
    1e4c:	e1 f0       	breq	.+56     	; 0x1e86 <__vector_22+0x2ea>
    1e4e:	80 91 12 21 	lds	r24, 0x2112	; 0x802112 <_500us_cca_index>
    1e52:	83 70       	andi	r24, 0x03	; 3
    1e54:	82 30       	cpi	r24, 0x02	; 2
    1e56:	b9 f4       	brne	.+46     	; 0x1e86 <__vector_22+0x2ea>
    1e58:	80 91 5e 21 	lds	r24, 0x215E	; 0x80215e <sending_com_register_add>
    1e5c:	8e 30       	cpi	r24, 0x0E	; 14
    1e5e:	60 f4       	brcc	.+24     	; 0x1e78 <__vector_22+0x2dc>
    1e60:	89 30       	cpi	r24, 0x09	; 9
    1e62:	09 f0       	breq	.+2      	; 0x1e66 <__vector_22+0x2ca>
    1e64:	4e c0       	rjmp	.+156    	; 0x1f02 <__vector_22+0x366>
    1e66:	20 91 60 08 	lds	r18, 0x0860	; 0x800860 <__TEXT_REGION_LENGTH__+0x700860>
    1e6a:	30 91 61 08 	lds	r19, 0x0861	; 0x800861 <__TEXT_REGION_LENGTH__+0x700861>
    1e6e:	20 93 25 21 	sts	0x2125, r18	; 0x802125 <commonbank+0xd>
    1e72:	30 93 26 21 	sts	0x2126, r19	; 0x802126 <commonbank+0xe>
    1e76:	45 c0       	rjmp	.+138    	; 0x1f02 <__vector_22+0x366>
    1e78:	8f 5f       	subi	r24, 0xFF	; 255
    1e7a:	80 93 5e 21 	sts	0x215E, r24	; 0x80215e <sending_com_register_add>
    1e7e:	8c 31       	cpi	r24, 0x1C	; 28
    1e80:	11 f4       	brne	.+4      	; 0x1e86 <__vector_22+0x2ea>
    1e82:	10 92 60 21 	sts	0x2160, r1	; 0x802160 <sending_com_registers>
    1e86:	80 91 61 21 	lds	r24, 0x2161	; 0x802161 <sending_registers>
    1e8a:	88 23       	and	r24, r24
    1e8c:	11 f1       	breq	.+68     	; 0x1ed2 <__vector_22+0x336>
    1e8e:	80 91 12 21 	lds	r24, 0x2112	; 0x802112 <_500us_cca_index>
    1e92:	83 70       	andi	r24, 0x03	; 3
    1e94:	f1 f4       	brne	.+60     	; 0x1ed2 <__vector_22+0x336>
    1e96:	80 91 5f 21 	lds	r24, 0x215F	; 0x80215f <sending_register_add>
    1e9a:	e8 2f       	mov	r30, r24
    1e9c:	f0 e0       	ldi	r31, 0x00	; 0
    1e9e:	e8 57       	subi	r30, 0x78	; 120
    1ea0:	ff 4d       	sbci	r31, 0xDF	; 223
    1ea2:	60 81       	ld	r22, Z
    1ea4:	80 5e       	subi	r24, 0xE0	; 224
    1ea6:	0e 94 ad 03 	call	0x75a	; 0x75a <core_read_app_register>
    1eaa:	88 23       	and	r24, r24
    1eac:	39 f0       	breq	.+14     	; 0x1ebc <__vector_22+0x320>
    1eae:	80 91 5f 21 	lds	r24, 0x215F	; 0x80215f <sending_register_add>
    1eb2:	41 e0       	ldi	r20, 0x01	; 1
    1eb4:	61 e0       	ldi	r22, 0x01	; 1
    1eb6:	80 5e       	subi	r24, 0xE0	; 224
    1eb8:	0e 94 0b 08 	call	0x1016	; 0x1016 <xmit>
    1ebc:	80 91 5f 21 	lds	r24, 0x215F	; 0x80215f <sending_register_add>
    1ec0:	8f 5f       	subi	r24, 0xFF	; 255
    1ec2:	80 93 5f 21 	sts	0x215F, r24	; 0x80215f <sending_register_add>
    1ec6:	90 91 13 21 	lds	r25, 0x2113	; 0x802113 <core_num_of_app_registers>
    1eca:	89 13       	cpse	r24, r25
    1ecc:	02 c0       	rjmp	.+4      	; 0x1ed2 <__vector_22+0x336>
    1ece:	10 92 61 21 	sts	0x2161, r1	; 0x802161 <sending_registers>
    1ed2:	0e 94 0e 03 	call	0x61c	; 0x61c <core_callback_t_after_exec>
    1ed6:	80 91 4c 08 	lds	r24, 0x084C	; 0x80084c <__TEXT_REGION_LENGTH__+0x70084c>
    1eda:	84 ff       	sbrs	r24, 4
    1edc:	06 c0       	rjmp	.+12     	; 0x1eea <__vector_22+0x34e>
    1ede:	80 91 11 21 	lds	r24, 0x2111	; 0x802111 <shutdown_counter>
    1ee2:	81 11       	cpse	r24, r1
    1ee4:	02 c0       	rjmp	.+4      	; 0x1eea <__vector_22+0x34e>
    1ee6:	0e 94 52 0b 	call	0x16a4	; 0x16a4 <core_func_catastrophic_error_detected>
    1eea:	18 95       	reti
    1eec:	11 c0       	rjmp	.+34     	; 0x1f10 <core_bool_is_visual_enabled>
    1eee:	80 91 27 21 	lds	r24, 0x2127	; 0x802127 <commonbank+0xf>
    1ef2:	84 ff       	sbrs	r24, 4
    1ef4:	fb ce       	rjmp	.-522    	; 0x1cec <__vector_22+0x150>
    1ef6:	34 cf       	rjmp	.-408    	; 0x1d60 <__vector_22+0x1c4>
    1ef8:	90 91 27 21 	lds	r25, 0x2127	; 0x802127 <commonbank+0xf>
    1efc:	94 ff       	sbrs	r25, 4
    1efe:	fc ce       	rjmp	.-520    	; 0x1cf8 <__vector_22+0x15c>
    1f00:	2f cf       	rjmp	.-418    	; 0x1d60 <__vector_22+0x1c4>
    1f02:	41 e0       	ldi	r20, 0x01	; 1
    1f04:	61 e0       	ldi	r22, 0x01	; 1
    1f06:	0e 94 0b 08 	call	0x1016	; 0x1016 <xmit>
    1f0a:	80 91 5e 21 	lds	r24, 0x215E	; 0x80215e <sending_com_register_add>
    1f0e:	b4 cf       	rjmp	.-152    	; 0x1e78 <__vector_22+0x2dc>

00001f10 <core_bool_is_visual_enabled>:
    1f10:	80 91 27 21 	lds	r24, 0x2127	; 0x802127 <commonbank+0xf>
    1f14:	85 fb       	bst	r24, 5
    1f16:	88 27       	eor	r24, r24
    1f18:	80 f9       	bld	r24, 0
    1f1a:	08 95       	ret

00001f1c <hwbp_com_uart_init>:
    1f1c:	ff 92       	push	r15
    1f1e:	0f 93       	push	r16
    1f20:	1f 93       	push	r17
    1f22:	cf 93       	push	r28
    1f24:	df 93       	push	r29
    1f26:	00 d0       	rcall	.+0      	; 0x1f28 <hwbp_com_uart_init+0xc>
    1f28:	cd b7       	in	r28, 0x3d	; 61
    1f2a:	de b7       	in	r29, 0x3e	; 62
    1f2c:	89 83       	std	Y+1, r24	; 0x01
    1f2e:	9a 83       	std	Y+2, r25	; 0x02
    1f30:	f6 2e       	mov	r15, r22
    1f32:	14 2f       	mov	r17, r20
    1f34:	20 e0       	ldi	r18, 0x00	; 0
    1f36:	40 e0       	ldi	r20, 0x00	; 0
    1f38:	61 e0       	ldi	r22, 0x01	; 1
    1f3a:	80 e8       	ldi	r24, 0x80	; 128
    1f3c:	96 e0       	ldi	r25, 0x06	; 6
    1f3e:	0e 94 87 06 	call	0xd0e	; 0xd0e <io_pin2out>
    1f42:	20 e0       	ldi	r18, 0x00	; 0
    1f44:	40 e0       	ldi	r20, 0x00	; 0
    1f46:	60 e0       	ldi	r22, 0x00	; 0
    1f48:	80 e8       	ldi	r24, 0x80	; 128
    1f4a:	96 e0       	ldi	r25, 0x06	; 6
    1f4c:	0e 94 72 06 	call	0xce4	; 0xce4 <io_pin2in>
    1f50:	01 e0       	ldi	r16, 0x01	; 1
    1f52:	21 e0       	ldi	r18, 0x01	; 1
    1f54:	40 e0       	ldi	r20, 0x00	; 0
    1f56:	63 e0       	ldi	r22, 0x03	; 3
    1f58:	80 e8       	ldi	r24, 0x80	; 128
    1f5a:	96 e0       	ldi	r25, 0x06	; 6
    1f5c:	0e 94 9f 06 	call	0xd3e	; 0xd3e <io_set_int>
    1f60:	82 e0       	ldi	r24, 0x02	; 2
    1f62:	80 93 86 06 	sts	0x0686, r24	; 0x800686 <__TEXT_REGION_LENGTH__+0x700686>
    1f66:	83 e0       	ldi	r24, 0x03	; 3
    1f68:	80 93 a5 0a 	sts	0x0AA5, r24	; 0x800aa5 <__TEXT_REGION_LENGTH__+0x700aa5>
    1f6c:	89 81       	ldd	r24, Y+1	; 0x01
    1f6e:	80 93 a6 0a 	sts	0x0AA6, r24	; 0x800aa6 <__TEXT_REGION_LENGTH__+0x700aa6>
    1f72:	8f 2d       	mov	r24, r15
    1f74:	90 e1       	ldi	r25, 0x10	; 16
    1f76:	89 02       	muls	r24, r25
    1f78:	b0 01       	movw	r22, r0
    1f7a:	11 24       	eor	r1, r1
    1f7c:	8a 81       	ldd	r24, Y+2	; 0x02
    1f7e:	8f 70       	andi	r24, 0x0F	; 15
    1f80:	86 2b       	or	r24, r22
    1f82:	80 93 a7 0a 	sts	0x0AA7, r24	; 0x800aa7 <__TEXT_REGION_LENGTH__+0x700aa7>
    1f86:	11 23       	and	r17, r17
    1f88:	29 f0       	breq	.+10     	; 0x1f94 <hwbp_com_uart_init+0x78>
    1f8a:	80 91 a4 0a 	lds	r24, 0x0AA4	; 0x800aa4 <__TEXT_REGION_LENGTH__+0x700aa4>
    1f8e:	84 60       	ori	r24, 0x04	; 4
    1f90:	80 93 a4 0a 	sts	0x0AA4, r24	; 0x800aa4 <__TEXT_REGION_LENGTH__+0x700aa4>
    1f94:	88 e0       	ldi	r24, 0x08	; 8
    1f96:	80 93 85 06 	sts	0x0685, r24	; 0x800685 <__TEXT_REGION_LENGTH__+0x700685>
    1f9a:	20 e0       	ldi	r18, 0x00	; 0
    1f9c:	40 e0       	ldi	r20, 0x00	; 0
    1f9e:	63 e0       	ldi	r22, 0x03	; 3
    1fa0:	80 e8       	ldi	r24, 0x80	; 128
    1fa2:	96 e0       	ldi	r25, 0x06	; 6
    1fa4:	0e 94 87 06 	call	0xd0e	; 0xd0e <io_pin2out>
    1fa8:	20 e0       	ldi	r18, 0x00	; 0
    1faa:	40 e0       	ldi	r20, 0x00	; 0
    1fac:	62 e0       	ldi	r22, 0x02	; 2
    1fae:	80 e8       	ldi	r24, 0x80	; 128
    1fb0:	96 e0       	ldi	r25, 0x06	; 6
    1fb2:	0e 94 72 06 	call	0xce4	; 0xce4 <io_pin2in>
    1fb6:	80 91 88 06 	lds	r24, 0x0688	; 0x800688 <__TEXT_REGION_LENGTH__+0x700688>
    1fba:	80 ff       	sbrs	r24, 0
    1fbc:	05 c0       	rjmp	.+10     	; 0x1fc8 <hwbp_com_uart_init+0xac>
    1fbe:	80 91 a3 0a 	lds	r24, 0x0AA3	; 0x800aa3 <__TEXT_REGION_LENGTH__+0x700aa3>
    1fc2:	8c 7f       	andi	r24, 0xFC	; 252
    1fc4:	80 93 a3 0a 	sts	0x0AA3, r24	; 0x800aa3 <__TEXT_REGION_LENGTH__+0x700aa3>
    1fc8:	0f 90       	pop	r0
    1fca:	0f 90       	pop	r0
    1fcc:	df 91       	pop	r29
    1fce:	cf 91       	pop	r28
    1fd0:	1f 91       	pop	r17
    1fd2:	0f 91       	pop	r16
    1fd4:	ff 90       	pop	r15
    1fd6:	08 95       	ret

00001fd8 <hwbp_com_uart_enable>:
    1fd8:	e0 ea       	ldi	r30, 0xA0	; 160
    1fda:	fa e0       	ldi	r31, 0x0A	; 10
    1fdc:	84 81       	ldd	r24, Z+4	; 0x04
    1fde:	88 61       	ori	r24, 0x18	; 24
    1fe0:	84 83       	std	Z+4, r24	; 0x04
    1fe2:	80 ee       	ldi	r24, 0xE0	; 224
    1fe4:	81 83       	std	Z+1, r24	; 0x01
    1fe6:	83 81       	ldd	r24, Z+3	; 0x03
    1fe8:	80 63       	ori	r24, 0x30	; 48
    1fea:	83 83       	std	Z+3, r24	; 0x03
    1fec:	08 95       	ret

00001fee <__vector_59>:
    1fee:	1f 92       	push	r1
    1ff0:	0f 92       	push	r0
    1ff2:	0f b6       	in	r0, 0x3f	; 63
    1ff4:	0f 92       	push	r0
    1ff6:	11 24       	eor	r1, r1
    1ff8:	2f 93       	push	r18
    1ffa:	3f 93       	push	r19
    1ffc:	4f 93       	push	r20
    1ffe:	5f 93       	push	r21
    2000:	6f 93       	push	r22
    2002:	7f 93       	push	r23
    2004:	8f 93       	push	r24
    2006:	9f 93       	push	r25
    2008:	af 93       	push	r26
    200a:	bf 93       	push	r27
    200c:	ef 93       	push	r30
    200e:	ff 93       	push	r31
    2010:	0e 94 a9 03 	call	0x752	; 0x752 <core_callback_uart_tx_before_exec>
    2014:	20 91 65 21 	lds	r18, 0x2165	; 0x802165 <hwbp_uart_tail>
    2018:	30 91 66 21 	lds	r19, 0x2166	; 0x802166 <hwbp_uart_tail+0x1>
    201c:	c9 01       	movw	r24, r18
    201e:	01 96       	adiw	r24, 0x01	; 1
    2020:	80 93 65 21 	sts	0x2165, r24	; 0x802165 <hwbp_uart_tail>
    2024:	90 93 66 21 	sts	0x2166, r25	; 0x802166 <hwbp_uart_tail+0x1>
    2028:	f9 01       	movw	r30, r18
    202a:	e5 50       	subi	r30, 0x05	; 5
    202c:	fd 4d       	sbci	r31, 0xDD	; 221
    202e:	20 81       	ld	r18, Z
    2030:	20 93 a0 0a 	sts	0x0AA0, r18	; 0x800aa0 <__TEXT_REGION_LENGTH__+0x700aa0>
    2034:	81 15       	cp	r24, r1
    2036:	22 e0       	ldi	r18, 0x02	; 2
    2038:	92 07       	cpc	r25, r18
    203a:	f9 f0       	breq	.+62     	; 0x207a <__vector_59+0x8c>
    203c:	20 91 63 21 	lds	r18, 0x2163	; 0x802163 <hwbp_uart_head>
    2040:	30 91 64 21 	lds	r19, 0x2164	; 0x802164 <hwbp_uart_head+0x1>
    2044:	28 17       	cp	r18, r24
    2046:	39 07       	cpc	r19, r25
    2048:	29 f4       	brne	.+10     	; 0x2054 <__vector_59+0x66>
    204a:	80 91 a3 0a 	lds	r24, 0x0AA3	; 0x800aa3 <__TEXT_REGION_LENGTH__+0x700aa3>
    204e:	8c 7f       	andi	r24, 0xFC	; 252
    2050:	80 93 a3 0a 	sts	0x0AA3, r24	; 0x800aa3 <__TEXT_REGION_LENGTH__+0x700aa3>
    2054:	0e 94 aa 03 	call	0x754	; 0x754 <core_callback_uart_tx_after_exec>
    2058:	ff 91       	pop	r31
    205a:	ef 91       	pop	r30
    205c:	bf 91       	pop	r27
    205e:	af 91       	pop	r26
    2060:	9f 91       	pop	r25
    2062:	8f 91       	pop	r24
    2064:	7f 91       	pop	r23
    2066:	6f 91       	pop	r22
    2068:	5f 91       	pop	r21
    206a:	4f 91       	pop	r20
    206c:	3f 91       	pop	r19
    206e:	2f 91       	pop	r18
    2070:	0f 90       	pop	r0
    2072:	0f be       	out	0x3f, r0	; 63
    2074:	0f 90       	pop	r0
    2076:	1f 90       	pop	r1
    2078:	18 95       	reti
    207a:	10 92 65 21 	sts	0x2165, r1	; 0x802165 <hwbp_uart_tail>
    207e:	10 92 66 21 	sts	0x2166, r1	; 0x802166 <hwbp_uart_tail+0x1>
    2082:	80 e0       	ldi	r24, 0x00	; 0
    2084:	90 e0       	ldi	r25, 0x00	; 0
    2086:	da cf       	rjmp	.-76     	; 0x203c <__vector_59+0x4e>

00002088 <__vector_43>:
    2088:	1f 92       	push	r1
    208a:	0f 92       	push	r0
    208c:	0f b6       	in	r0, 0x3f	; 63
    208e:	0f 92       	push	r0
    2090:	11 24       	eor	r1, r1
    2092:	2f 93       	push	r18
    2094:	3f 93       	push	r19
    2096:	4f 93       	push	r20
    2098:	5f 93       	push	r21
    209a:	6f 93       	push	r22
    209c:	7f 93       	push	r23
    209e:	8f 93       	push	r24
    20a0:	9f 93       	push	r25
    20a2:	af 93       	push	r26
    20a4:	bf 93       	push	r27
    20a6:	ef 93       	push	r30
    20a8:	ff 93       	push	r31
    20aa:	0e 94 ab 03 	call	0x756	; 0x756 <core_callback_uart_cts_before_exec>
    20ae:	80 91 88 06 	lds	r24, 0x0688	; 0x800688 <__TEXT_REGION_LENGTH__+0x700688>
    20b2:	80 fd       	sbrc	r24, 0
    20b4:	23 c0       	rjmp	.+70     	; 0x20fc <__vector_43+0x74>
    20b6:	20 91 65 21 	lds	r18, 0x2165	; 0x802165 <hwbp_uart_tail>
    20ba:	30 91 66 21 	lds	r19, 0x2166	; 0x802166 <hwbp_uart_tail+0x1>
    20be:	80 91 63 21 	lds	r24, 0x2163	; 0x802163 <hwbp_uart_head>
    20c2:	90 91 64 21 	lds	r25, 0x2164	; 0x802164 <hwbp_uart_head+0x1>
    20c6:	28 17       	cp	r18, r24
    20c8:	39 07       	cpc	r19, r25
    20ca:	29 f0       	breq	.+10     	; 0x20d6 <__vector_43+0x4e>
    20cc:	80 91 a3 0a 	lds	r24, 0x0AA3	; 0x800aa3 <__TEXT_REGION_LENGTH__+0x700aa3>
    20d0:	83 60       	ori	r24, 0x03	; 3
    20d2:	80 93 a3 0a 	sts	0x0AA3, r24	; 0x800aa3 <__TEXT_REGION_LENGTH__+0x700aa3>
    20d6:	0e 94 ac 03 	call	0x758	; 0x758 <core_callback_uart_cts_after_exec>
    20da:	ff 91       	pop	r31
    20dc:	ef 91       	pop	r30
    20de:	bf 91       	pop	r27
    20e0:	af 91       	pop	r26
    20e2:	9f 91       	pop	r25
    20e4:	8f 91       	pop	r24
    20e6:	7f 91       	pop	r23
    20e8:	6f 91       	pop	r22
    20ea:	5f 91       	pop	r21
    20ec:	4f 91       	pop	r20
    20ee:	3f 91       	pop	r19
    20f0:	2f 91       	pop	r18
    20f2:	0f 90       	pop	r0
    20f4:	0f be       	out	0x3f, r0	; 63
    20f6:	0f 90       	pop	r0
    20f8:	1f 90       	pop	r1
    20fa:	18 95       	reti
    20fc:	80 91 a3 0a 	lds	r24, 0x0AA3	; 0x800aa3 <__TEXT_REGION_LENGTH__+0x700aa3>
    2100:	8c 7f       	andi	r24, 0xFC	; 252
    2102:	80 93 a3 0a 	sts	0x0AA3, r24	; 0x800aa3 <__TEXT_REGION_LENGTH__+0x700aa3>
    2106:	e7 cf       	rjmp	.-50     	; 0x20d6 <__vector_43+0x4e>

00002108 <hwbp_uart_xmit>:
    2108:	bf 92       	push	r11
    210a:	cf 92       	push	r12
    210c:	df 92       	push	r13
    210e:	ef 92       	push	r14
    2110:	ff 92       	push	r15
    2112:	0f 93       	push	r16
    2114:	1f 93       	push	r17
    2116:	cf 93       	push	r28
    2118:	df 93       	push	r29
    211a:	6c 01       	movw	r12, r24
    211c:	b6 2e       	mov	r11, r22
    211e:	80 91 88 06 	lds	r24, 0x0688	; 0x800688 <__TEXT_REGION_LENGTH__+0x700688>
    2122:	80 fd       	sbrc	r24, 0
    2124:	05 c0       	rjmp	.+10     	; 0x2130 <hwbp_uart_xmit+0x28>
    2126:	80 91 a3 0a 	lds	r24, 0x0AA3	; 0x800aa3 <__TEXT_REGION_LENGTH__+0x700aa3>
    212a:	83 60       	ori	r24, 0x03	; 3
    212c:	80 93 a3 0a 	sts	0x0AA3, r24	; 0x800aa3 <__TEXT_REGION_LENGTH__+0x700aa3>
    2130:	00 91 63 21 	lds	r16, 0x2163	; 0x802163 <hwbp_uart_head>
    2134:	10 91 64 21 	lds	r17, 0x2164	; 0x802164 <hwbp_uart_head+0x1>
    2138:	c0 e0       	ldi	r28, 0x00	; 0
    213a:	d2 e0       	ldi	r29, 0x02	; 2
    213c:	c0 1b       	sub	r28, r16
    213e:	d1 0b       	sbc	r29, r17
    2140:	eb 2c       	mov	r14, r11
    2142:	f1 2c       	mov	r15, r1
    2144:	ce 15       	cp	r28, r14
    2146:	df 05       	cpc	r29, r15
    2148:	60 f1       	brcs	.+88     	; 0x21a2 <hwbp_uart_xmit+0x9a>
    214a:	a7 01       	movw	r20, r14
    214c:	b6 01       	movw	r22, r12
    214e:	c8 01       	movw	r24, r16
    2150:	85 50       	subi	r24, 0x05	; 5
    2152:	9d 4d       	sbci	r25, 0xDD	; 221
    2154:	0e 94 39 14 	call	0x2872	; 0x2872 <memcpy>
    2158:	80 91 65 21 	lds	r24, 0x2165	; 0x802165 <hwbp_uart_tail>
    215c:	90 91 66 21 	lds	r25, 0x2166	; 0x802166 <hwbp_uart_tail+0x1>
    2160:	e0 0e       	add	r14, r16
    2162:	f1 1e       	adc	r15, r17
    2164:	e0 92 63 21 	sts	0x2163, r14	; 0x802163 <hwbp_uart_head>
    2168:	f0 92 64 21 	sts	0x2164, r15	; 0x802164 <hwbp_uart_head+0x1>
    216c:	e1 14       	cp	r14, r1
    216e:	22 e0       	ldi	r18, 0x02	; 2
    2170:	f2 06       	cpc	r15, r18
    2172:	09 f4       	brne	.+2      	; 0x2176 <hwbp_uart_xmit+0x6e>
    2174:	48 c0       	rjmp	.+144    	; 0x2206 <hwbp_uart_xmit+0xfe>
    2176:	08 17       	cp	r16, r24
    2178:	19 07       	cpc	r17, r25
    217a:	b8 f5       	brcc	.+110    	; 0x21ea <hwbp_uart_xmit+0xe2>
    217c:	e8 16       	cp	r14, r24
    217e:	f9 06       	cpc	r15, r25
    2180:	a0 f1       	brcs	.+104    	; 0x21ea <hwbp_uart_xmit+0xe2>
    2182:	8f ef       	ldi	r24, 0xFF	; 255
    2184:	e8 1a       	sub	r14, r24
    2186:	f8 0a       	sbc	r15, r24
    2188:	e0 92 65 21 	sts	0x2165, r14	; 0x802165 <hwbp_uart_tail>
    218c:	f0 92 66 21 	sts	0x2166, r15	; 0x802166 <hwbp_uart_tail+0x1>
    2190:	e1 14       	cp	r14, r1
    2192:	22 e0       	ldi	r18, 0x02	; 2
    2194:	f2 06       	cpc	r15, r18
    2196:	49 f5       	brne	.+82     	; 0x21ea <hwbp_uart_xmit+0xe2>
    2198:	10 92 65 21 	sts	0x2165, r1	; 0x802165 <hwbp_uart_tail>
    219c:	10 92 66 21 	sts	0x2166, r1	; 0x802166 <hwbp_uart_tail+0x1>
    21a0:	24 c0       	rjmp	.+72     	; 0x21ea <hwbp_uart_xmit+0xe2>
    21a2:	ae 01       	movw	r20, r28
    21a4:	b6 01       	movw	r22, r12
    21a6:	c8 01       	movw	r24, r16
    21a8:	85 50       	subi	r24, 0x05	; 5
    21aa:	9d 4d       	sbci	r25, 0xDD	; 221
    21ac:	0e 94 39 14 	call	0x2872	; 0x2872 <memcpy>
    21b0:	bc 1a       	sub	r11, r28
    21b2:	eb 2c       	mov	r14, r11
    21b4:	f1 2c       	mov	r15, r1
    21b6:	be 01       	movw	r22, r28
    21b8:	6c 0d       	add	r22, r12
    21ba:	7d 1d       	adc	r23, r13
    21bc:	a7 01       	movw	r20, r14
    21be:	8b ef       	ldi	r24, 0xFB	; 251
    21c0:	92 e2       	ldi	r25, 0x22	; 34
    21c2:	0e 94 39 14 	call	0x2872	; 0x2872 <memcpy>
    21c6:	80 91 65 21 	lds	r24, 0x2165	; 0x802165 <hwbp_uart_tail>
    21ca:	90 91 66 21 	lds	r25, 0x2166	; 0x802166 <hwbp_uart_tail+0x1>
    21ce:	e0 92 63 21 	sts	0x2163, r14	; 0x802163 <hwbp_uart_head>
    21d2:	f0 92 64 21 	sts	0x2164, r15	; 0x802164 <hwbp_uart_head+0x1>
    21d6:	08 17       	cp	r16, r24
    21d8:	19 07       	cpc	r17, r25
    21da:	88 f4       	brcc	.+34     	; 0x21fe <hwbp_uart_xmit+0xf6>
    21dc:	2f ef       	ldi	r18, 0xFF	; 255
    21de:	e2 1a       	sub	r14, r18
    21e0:	f2 0a       	sbc	r15, r18
    21e2:	e0 92 65 21 	sts	0x2165, r14	; 0x802165 <hwbp_uart_tail>
    21e6:	f0 92 66 21 	sts	0x2166, r15	; 0x802166 <hwbp_uart_tail+0x1>
    21ea:	df 91       	pop	r29
    21ec:	cf 91       	pop	r28
    21ee:	1f 91       	pop	r17
    21f0:	0f 91       	pop	r16
    21f2:	ff 90       	pop	r15
    21f4:	ef 90       	pop	r14
    21f6:	df 90       	pop	r13
    21f8:	cf 90       	pop	r12
    21fa:	bf 90       	pop	r11
    21fc:	08 95       	ret
    21fe:	e8 16       	cp	r14, r24
    2200:	f9 06       	cpc	r15, r25
    2202:	60 f7       	brcc	.-40     	; 0x21dc <hwbp_uart_xmit+0xd4>
    2204:	f2 cf       	rjmp	.-28     	; 0x21ea <hwbp_uart_xmit+0xe2>
    2206:	10 92 63 21 	sts	0x2163, r1	; 0x802163 <hwbp_uart_head>
    220a:	10 92 64 21 	sts	0x2164, r1	; 0x802164 <hwbp_uart_head+0x1>
    220e:	89 2b       	or	r24, r25
    2210:	61 f7       	brne	.-40     	; 0x21ea <hwbp_uart_xmit+0xe2>
    2212:	81 e0       	ldi	r24, 0x01	; 1
    2214:	90 e0       	ldi	r25, 0x00	; 0
    2216:	80 93 65 21 	sts	0x2165, r24	; 0x802165 <hwbp_uart_tail>
    221a:	90 93 66 21 	sts	0x2166, r25	; 0x802166 <hwbp_uart_tail+0x1>
    221e:	e5 cf       	rjmp	.-54     	; 0x21ea <hwbp_uart_xmit+0xe2>

00002220 <__vector_58>:
    2220:	1f 92       	push	r1
    2222:	0f 92       	push	r0
    2224:	0f b6       	in	r0, 0x3f	; 63
    2226:	0f 92       	push	r0
    2228:	11 24       	eor	r1, r1
    222a:	2f 93       	push	r18
    222c:	3f 93       	push	r19
    222e:	4f 93       	push	r20
    2230:	5f 93       	push	r21
    2232:	6f 93       	push	r22
    2234:	7f 93       	push	r23
    2236:	8f 93       	push	r24
    2238:	9f 93       	push	r25
    223a:	af 93       	push	r26
    223c:	bf 93       	push	r27
    223e:	ef 93       	push	r30
    2240:	ff 93       	push	r31
    2242:	0e 94 a7 03 	call	0x74e	; 0x74e <core_callback_uart_rx_before_exec>
    2246:	90 91 a0 0a 	lds	r25, 0x0AA0	; 0x800aa0 <__TEXT_REGION_LENGTH__+0x700aa0>
    224a:	e0 91 62 21 	lds	r30, 0x2162	; 0x802162 <hwbp_uart_rx_pointer>
    224e:	81 e0       	ldi	r24, 0x01	; 1
    2250:	8e 0f       	add	r24, r30
    2252:	80 93 62 21 	sts	0x2162, r24	; 0x802162 <hwbp_uart_rx_pointer>
    2256:	f0 e0       	ldi	r31, 0x00	; 0
    2258:	e5 50       	subi	r30, 0x05	; 5
    225a:	fb 4d       	sbci	r31, 0xDB	; 219
    225c:	90 83       	st	Z, r25
    225e:	81 30       	cpi	r24, 0x01	; 1
    2260:	e9 f0       	breq	.+58     	; 0x229c <__vector_58+0x7c>
    2262:	84 30       	cpi	r24, 0x04	; 4
    2264:	19 f1       	breq	.+70     	; 0x22ac <__vector_58+0x8c>
    2266:	90 e0       	ldi	r25, 0x00	; 0
    2268:	20 91 f9 22 	lds	r18, 0x22F9	; 0x8022f9 <cmd_len>
    226c:	30 91 fa 22 	lds	r19, 0x22FA	; 0x8022fa <cmd_len+0x1>
    2270:	82 17       	cp	r24, r18
    2272:	93 07       	cpc	r25, r19
    2274:	49 f1       	breq	.+82     	; 0x22c8 <__vector_58+0xa8>
    2276:	0e 94 a8 03 	call	0x750	; 0x750 <core_callback_uart_rx_after_exec>
    227a:	ff 91       	pop	r31
    227c:	ef 91       	pop	r30
    227e:	bf 91       	pop	r27
    2280:	af 91       	pop	r26
    2282:	9f 91       	pop	r25
    2284:	8f 91       	pop	r24
    2286:	7f 91       	pop	r23
    2288:	6f 91       	pop	r22
    228a:	5f 91       	pop	r21
    228c:	4f 91       	pop	r20
    228e:	3f 91       	pop	r19
    2290:	2f 91       	pop	r18
    2292:	0f 90       	pop	r0
    2294:	0f be       	out	0x3f, r0	; 63
    2296:	0f 90       	pop	r0
    2298:	1f 90       	pop	r1
    229a:	18 95       	reti
    229c:	80 91 fb 24 	lds	r24, 0x24FB	; 0x8024fb <rxbuff_hwbp_uart>
    22a0:	81 50       	subi	r24, 0x01	; 1
    22a2:	82 30       	cpi	r24, 0x02	; 2
    22a4:	d0 f1       	brcs	.+116    	; 0x231a <__vector_58+0xfa>
    22a6:	10 92 62 21 	sts	0x2162, r1	; 0x802162 <hwbp_uart_rx_pointer>
    22aa:	e5 cf       	rjmp	.-54     	; 0x2276 <__vector_58+0x56>
    22ac:	80 91 fc 24 	lds	r24, 0x24FC	; 0x8024fc <rxbuff_hwbp_uart+0x1>
    22b0:	8f 3f       	cpi	r24, 0xFF	; 255
    22b2:	01 f1       	breq	.+64     	; 0x22f4 <__vector_58+0xd4>
    22b4:	90 e0       	ldi	r25, 0x00	; 0
    22b6:	8e 3f       	cpi	r24, 0xFE	; 254
    22b8:	91 05       	cpc	r25, r1
    22ba:	a9 f3       	breq	.-22     	; 0x22a6 <__vector_58+0x86>
    22bc:	02 96       	adiw	r24, 0x02	; 2
    22be:	80 93 f9 22 	sts	0x22F9, r24	; 0x8022f9 <cmd_len>
    22c2:	90 93 fa 22 	sts	0x22FA, r25	; 0x8022fa <cmd_len+0x1>
    22c6:	d7 cf       	rjmp	.-82     	; 0x2276 <__vector_58+0x56>
    22c8:	20 91 99 20 	lds	r18, 0x2099	; 0x802099 <com_mode>
    22cc:	21 30       	cpi	r18, 0x01	; 1
    22ce:	61 f1       	breq	.+88     	; 0x2328 <__vector_58+0x108>
    22d0:	20 91 fc 24 	lds	r18, 0x24FC	; 0x8024fc <rxbuff_hwbp_uart+0x1>
    22d4:	2f 3f       	cpi	r18, 0xFF	; 255
    22d6:	29 f1       	breq	.+74     	; 0x2322 <__vector_58+0x102>
    22d8:	22 e0       	ldi	r18, 0x02	; 2
    22da:	30 e0       	ldi	r19, 0x00	; 0
    22dc:	82 1b       	sub	r24, r18
    22de:	93 0b       	sbc	r25, r19
    22e0:	80 93 f9 22 	sts	0x22F9, r24	; 0x8022f9 <cmd_len>
    22e4:	90 93 fa 22 	sts	0x22FA, r25	; 0x8022fa <cmd_len+0x1>
    22e8:	10 92 62 21 	sts	0x2162, r1	; 0x802162 <hwbp_uart_rx_pointer>
    22ec:	81 e0       	ldi	r24, 0x01	; 1
    22ee:	80 93 67 21 	sts	0x2167, r24	; 0x802167 <rx_cmd_ready>
    22f2:	c1 cf       	rjmp	.-126    	; 0x2276 <__vector_58+0x56>
    22f4:	80 91 fc 24 	lds	r24, 0x24FC	; 0x8024fc <rxbuff_hwbp_uart+0x1>
    22f8:	90 91 fd 24 	lds	r25, 0x24FD	; 0x8024fd <rxbuff_hwbp_uart+0x2>
    22fc:	04 96       	adiw	r24, 0x04	; 4
    22fe:	8f 3f       	cpi	r24, 0xFF	; 255
    2300:	91 05       	cpc	r25, r1
    2302:	09 f0       	breq	.+2      	; 0x2306 <__vector_58+0xe6>
    2304:	80 f6       	brcc	.-96     	; 0x22a6 <__vector_58+0x86>
    2306:	80 91 fd 24 	lds	r24, 0x24FD	; 0x8024fd <rxbuff_hwbp_uart+0x2>
    230a:	90 91 fe 24 	lds	r25, 0x24FE	; 0x8024fe <rxbuff_hwbp_uart+0x3>
    230e:	04 96       	adiw	r24, 0x04	; 4
    2310:	80 93 f9 22 	sts	0x22F9, r24	; 0x8022f9 <cmd_len>
    2314:	90 93 fa 22 	sts	0x22FA, r25	; 0x8022fa <cmd_len+0x1>
    2318:	ae cf       	rjmp	.-164    	; 0x2276 <__vector_58+0x56>
    231a:	82 e3       	ldi	r24, 0x32	; 50
    231c:	80 93 68 21 	sts	0x2168, r24	; 0x802168 <rx_timeout>
    2320:	aa cf       	rjmp	.-172    	; 0x2276 <__vector_58+0x56>
    2322:	24 e0       	ldi	r18, 0x04	; 4
    2324:	30 e0       	ldi	r19, 0x00	; 0
    2326:	da cf       	rjmp	.-76     	; 0x22dc <__vector_58+0xbc>
    2328:	82 e0       	ldi	r24, 0x02	; 2
    232a:	80 93 85 06 	sts	0x0685, r24	; 0x800685 <__TEXT_REGION_LENGTH__+0x700685>
    232e:	83 e8       	ldi	r24, 0x83	; 131
    2330:	80 93 a2 00 	sts	0x00A2, r24	; 0x8000a2 <__TEXT_REGION_LENGTH__+0x7000a2>
    2334:	80 91 a3 0a 	lds	r24, 0x0AA3	; 0x800aa3 <__TEXT_REGION_LENGTH__+0x700aa3>
    2338:	8f 7c       	andi	r24, 0xCF	; 207
    233a:	80 93 a3 0a 	sts	0x0AA3, r24	; 0x800aa3 <__TEXT_REGION_LENGTH__+0x700aa3>
    233e:	87 e8       	ldi	r24, 0x87	; 135
    2340:	80 93 a2 00 	sts	0x00A2, r24	; 0x8000a2 <__TEXT_REGION_LENGTH__+0x7000a2>
    2344:	80 91 f9 22 	lds	r24, 0x22F9	; 0x8022f9 <cmd_len>
    2348:	90 91 fa 22 	lds	r25, 0x22FA	; 0x8022fa <cmd_len+0x1>
    234c:	c1 cf       	rjmp	.-126    	; 0x22d0 <__vector_58+0xb0>

0000234e <initialize_timestamp_uart>:
    234e:	cf 93       	push	r28
    2350:	df 93       	push	r29
    2352:	00 d0       	rcall	.+0      	; 0x2354 <initialize_timestamp_uart+0x6>
    2354:	cd b7       	in	r28, 0x3d	; 61
    2356:	de b7       	in	r29, 0x3e	; 62
    2358:	23 e1       	ldi	r18, 0x13	; 19
    235a:	30 e0       	ldi	r19, 0x00	; 0
    235c:	29 83       	std	Y+1, r18	; 0x01
    235e:	3a 83       	std	Y+2, r19	; 0x02
    2360:	80 93 6f 21 	sts	0x216F, r24	; 0x80216f <timestamp_B0>
    2364:	90 93 70 21 	sts	0x2170, r25	; 0x802170 <timestamp_B0+0x1>
    2368:	9c 01       	movw	r18, r24
    236a:	2f 5f       	subi	r18, 0xFF	; 255
    236c:	3f 4f       	sbci	r19, 0xFF	; 255
    236e:	20 93 6d 21 	sts	0x216D, r18	; 0x80216d <timestamp_B1>
    2372:	30 93 6e 21 	sts	0x216E, r19	; 0x80216e <timestamp_B1+0x1>
    2376:	2f 5f       	subi	r18, 0xFF	; 255
    2378:	3f 4f       	sbci	r19, 0xFF	; 255
    237a:	20 93 6b 21 	sts	0x216B, r18	; 0x80216b <timestamp_B2>
    237e:	30 93 6c 21 	sts	0x216C, r19	; 0x80216c <timestamp_B2+0x1>
    2382:	03 96       	adiw	r24, 0x03	; 3
    2384:	80 93 69 21 	sts	0x2169, r24	; 0x802169 <timestamp_B3>
    2388:	90 93 6a 21 	sts	0x216A, r25	; 0x80216a <timestamp_B3+0x1>
    238c:	83 e0       	ldi	r24, 0x03	; 3
    238e:	80 93 b5 09 	sts	0x09B5, r24	; 0x8009b5 <__TEXT_REGION_LENGTH__+0x7009b5>
    2392:	89 81       	ldd	r24, Y+1	; 0x01
    2394:	80 93 b6 09 	sts	0x09B6, r24	; 0x8009b6 <__TEXT_REGION_LENGTH__+0x7009b6>
    2398:	8a 81       	ldd	r24, Y+2	; 0x02
    239a:	8f 70       	andi	r24, 0x0F	; 15
    239c:	80 93 b7 09 	sts	0x09B7, r24	; 0x8009b7 <__TEXT_REGION_LENGTH__+0x7009b7>
    23a0:	20 e0       	ldi	r18, 0x00	; 0
    23a2:	40 e0       	ldi	r20, 0x00	; 0
    23a4:	67 e0       	ldi	r22, 0x07	; 7
    23a6:	80 e6       	ldi	r24, 0x60	; 96
    23a8:	96 e0       	ldi	r25, 0x06	; 6
    23aa:	0e 94 87 06 	call	0xd0e	; 0xd0e <io_pin2out>
    23ae:	88 e0       	ldi	r24, 0x08	; 8
    23b0:	80 93 b4 09 	sts	0x09B4, r24	; 0x8009b4 <__TEXT_REGION_LENGTH__+0x7009b4>
    23b4:	0f 90       	pop	r0
    23b6:	0f 90       	pop	r0
    23b8:	df 91       	pop	r29
    23ba:	cf 91       	pop	r28
    23bc:	08 95       	ret

000023be <reset_sync_counter>:
    23be:	10 92 71 21 	sts	0x2171, r1	; 0x802171 <timestamp_tx_counter>
    23c2:	10 92 72 21 	sts	0x2172, r1	; 0x802172 <timestamp_tx_counter+0x1>
    23c6:	08 95       	ret

000023c8 <trigger_sync_timer>:
    23c8:	20 91 71 21 	lds	r18, 0x2171	; 0x802171 <timestamp_tx_counter>
    23cc:	30 91 72 21 	lds	r19, 0x2172	; 0x802172 <timestamp_tx_counter+0x1>
    23d0:	c9 01       	movw	r24, r18
    23d2:	01 96       	adiw	r24, 0x01	; 1
    23d4:	80 93 71 21 	sts	0x2171, r24	; 0x802171 <timestamp_tx_counter>
    23d8:	90 93 72 21 	sts	0x2172, r25	; 0x802172 <timestamp_tx_counter+0x1>
    23dc:	84 30       	cpi	r24, 0x04	; 4
    23de:	91 05       	cpc	r25, r1
    23e0:	71 f0       	breq	.+28     	; 0x23fe <trigger_sync_timer+0x36>
    23e2:	50 f0       	brcs	.+20     	; 0x23f8 <trigger_sync_timer+0x30>
    23e4:	86 30       	cpi	r24, 0x06	; 6
    23e6:	91 05       	cpc	r25, r1
    23e8:	30 f0       	brcs	.+12     	; 0x23f6 <trigger_sync_timer+0x2e>
    23ea:	88 30       	cpi	r24, 0x08	; 8
    23ec:	91 05       	cpc	r25, r1
    23ee:	38 f0       	brcs	.+14     	; 0x23fe <trigger_sync_timer+0x36>
    23f0:	8e 3c       	cpi	r24, 0xCE	; 206
    23f2:	97 40       	sbci	r25, 0x07	; 7
    23f4:	21 f0       	breq	.+8      	; 0x23fe <trigger_sync_timer+0x36>
    23f6:	08 95       	ret
    23f8:	22 30       	cpi	r18, 0x02	; 2
    23fa:	31 05       	cpc	r19, r1
    23fc:	e0 f7       	brcc	.-8      	; 0x23f6 <trigger_sync_timer+0x2e>
    23fe:	21 e0       	ldi	r18, 0x01	; 1
    2400:	4c e2       	ldi	r20, 0x2C	; 44
    2402:	50 e0       	ldi	r21, 0x00	; 0
    2404:	66 e0       	ldi	r22, 0x06	; 6
    2406:	80 e0       	ldi	r24, 0x00	; 0
    2408:	99 e0       	ldi	r25, 0x09	; 9
    240a:	0c 94 d5 06 	jmp	0xdaa	; 0xdaa <timer_type0_enable>

0000240e <__vector_77>:
    240e:	e0 91 6f 21 	lds	r30, 0x216F	; 0x80216f <timestamp_B0>
    2412:	f0 91 70 21 	lds	r31, 0x2170	; 0x802170 <timestamp_B0+0x1>
    2416:	20 81       	ld	r18, Z
    2418:	2a 3a       	cpi	r18, 0xAA	; 170
    241a:	71 f4       	brne	.+28     	; 0x2438 <__vector_77+0x2a>
    241c:	e0 91 6d 21 	lds	r30, 0x216D	; 0x80216d <timestamp_B1>
    2420:	f0 91 6e 21 	lds	r31, 0x216E	; 0x80216e <timestamp_B1+0x1>
    2424:	40 81       	ld	r20, Z
    2426:	4f 3a       	cpi	r20, 0xAF	; 175
    2428:	69 f4       	brne	.+26     	; 0x2444 <__vector_77+0x36>
    242a:	18 95       	reti
    242c:	e0 91 6b 21 	lds	r30, 0x216B	; 0x80216b <timestamp_B2>
    2430:	f0 91 6c 21 	lds	r31, 0x216C	; 0x80216c <timestamp_B2+0x1>
    2434:	80 81       	ld	r24, Z
    2436:	1c c0       	rjmp	.+56     	; 0x2470 <__vector_77+0x62>
    2438:	e0 91 6d 21 	lds	r30, 0x216D	; 0x80216d <timestamp_B1>
    243c:	f0 91 6e 21 	lds	r31, 0x216E	; 0x80216e <timestamp_B1+0x1>
    2440:	90 81       	ld	r25, Z
    2442:	01 c0       	rjmp	.+2      	; 0x2446 <__vector_77+0x38>
    2444:	94 2f       	mov	r25, r20
    2446:	9a 3a       	cpi	r25, 0xAA	; 170
    2448:	51 f4       	brne	.+20     	; 0x245e <__vector_77+0x50>
    244a:	e0 91 6b 21 	lds	r30, 0x216B	; 0x80216b <timestamp_B2>
    244e:	f0 91 6c 21 	lds	r31, 0x216C	; 0x80216c <timestamp_B2+0x1>
    2452:	30 81       	ld	r19, Z
    2454:	3f 3a       	cpi	r19, 0xAF	; 175
    2456:	51 f4       	brne	.+20     	; 0x246c <__vector_77+0x5e>
    2458:	18 95       	reti
    245a:	4a ea       	ldi	r20, 0xAA	; 170
    245c:	18 c0       	rjmp	.+48     	; 0x248e <__vector_77+0x80>
    245e:	e0 91 6b 21 	lds	r30, 0x216B	; 0x80216b <timestamp_B2>
    2462:	f0 91 6c 21 	lds	r31, 0x216C	; 0x80216c <timestamp_B2+0x1>
    2466:	80 81       	ld	r24, Z
    2468:	49 2f       	mov	r20, r25
    246a:	02 c0       	rjmp	.+4      	; 0x2470 <__vector_77+0x62>
    246c:	83 2f       	mov	r24, r19
    246e:	4a ea       	ldi	r20, 0xAA	; 170
    2470:	8a 3a       	cpi	r24, 0xAA	; 170
    2472:	51 f4       	brne	.+20     	; 0x2488 <__vector_77+0x7a>
    2474:	e0 91 69 21 	lds	r30, 0x2169	; 0x802169 <timestamp_B3>
    2478:	f0 91 6a 21 	lds	r31, 0x216A	; 0x80216a <timestamp_B3+0x1>
    247c:	80 81       	ld	r24, Z
    247e:	8f 3a       	cpi	r24, 0xAF	; 175
    2480:	29 f4       	brne	.+10     	; 0x248c <__vector_77+0x7e>
    2482:	18 95       	reti
    2484:	3a ea       	ldi	r19, 0xAA	; 170
    2486:	03 c0       	rjmp	.+6      	; 0x248e <__vector_77+0x80>
    2488:	38 2f       	mov	r19, r24
    248a:	01 c0       	rjmp	.+2      	; 0x248e <__vector_77+0x80>
    248c:	3a ea       	ldi	r19, 0xAA	; 170
    248e:	80 91 71 21 	lds	r24, 0x2171	; 0x802171 <timestamp_tx_counter>
    2492:	90 91 72 21 	lds	r25, 0x2172	; 0x802172 <timestamp_tx_counter+0x1>
    2496:	84 30       	cpi	r24, 0x04	; 4
    2498:	91 05       	cpc	r25, r1
    249a:	c9 f0       	breq	.+50     	; 0x24ce <__vector_77+0xc0>
    249c:	30 f4       	brcc	.+12     	; 0x24aa <__vector_77+0x9c>
    249e:	81 30       	cpi	r24, 0x01	; 1
    24a0:	91 05       	cpc	r25, r1
    24a2:	69 f0       	breq	.+26     	; 0x24be <__vector_77+0xb0>
    24a4:	02 97       	sbiw	r24, 0x02	; 2
    24a6:	79 f0       	breq	.+30     	; 0x24c6 <__vector_77+0xb8>
    24a8:	22 c0       	rjmp	.+68     	; 0x24ee <__vector_77+0xe0>
    24aa:	87 30       	cpi	r24, 0x07	; 7
    24ac:	91 05       	cpc	r25, r1
    24ae:	a9 f0       	breq	.+42     	; 0x24da <__vector_77+0xcc>
    24b0:	8e 3c       	cpi	r24, 0xCE	; 206
    24b2:	27 e0       	ldi	r18, 0x07	; 7
    24b4:	92 07       	cpc	r25, r18
    24b6:	a1 f0       	breq	.+40     	; 0x24e0 <__vector_77+0xd2>
    24b8:	06 97       	sbiw	r24, 0x06	; 6
    24ba:	c9 f4       	brne	.+50     	; 0x24ee <__vector_77+0xe0>
    24bc:	0b c0       	rjmp	.+22     	; 0x24d4 <__vector_77+0xc6>
    24be:	8a ea       	ldi	r24, 0xAA	; 170
    24c0:	80 93 b0 09 	sts	0x09B0, r24	; 0x8009b0 <__TEXT_REGION_LENGTH__+0x7009b0>
    24c4:	14 c0       	rjmp	.+40     	; 0x24ee <__vector_77+0xe0>
    24c6:	8f ea       	ldi	r24, 0xAF	; 175
    24c8:	80 93 b0 09 	sts	0x09B0, r24	; 0x8009b0 <__TEXT_REGION_LENGTH__+0x7009b0>
    24cc:	10 c0       	rjmp	.+32     	; 0x24ee <__vector_77+0xe0>
    24ce:	20 93 b0 09 	sts	0x09B0, r18	; 0x8009b0 <__TEXT_REGION_LENGTH__+0x7009b0>
    24d2:	0d c0       	rjmp	.+26     	; 0x24ee <__vector_77+0xe0>
    24d4:	40 93 b0 09 	sts	0x09B0, r20	; 0x8009b0 <__TEXT_REGION_LENGTH__+0x7009b0>
    24d8:	0a c0       	rjmp	.+20     	; 0x24ee <__vector_77+0xe0>
    24da:	30 93 b0 09 	sts	0x09B0, r19	; 0x8009b0 <__TEXT_REGION_LENGTH__+0x7009b0>
    24de:	07 c0       	rjmp	.+14     	; 0x24ee <__vector_77+0xe0>
    24e0:	e0 91 69 21 	lds	r30, 0x2169	; 0x802169 <timestamp_B3>
    24e4:	f0 91 6a 21 	lds	r31, 0x216A	; 0x80216a <timestamp_B3+0x1>
    24e8:	80 81       	ld	r24, Z
    24ea:	80 93 b0 09 	sts	0x09B0, r24	; 0x8009b0 <__TEXT_REGION_LENGTH__+0x7009b0>
    24ee:	80 e0       	ldi	r24, 0x00	; 0
    24f0:	99 e0       	ldi	r25, 0x09	; 9
    24f2:	0e 94 f4 06 	call	0xde8	; 0xde8 <timer_type0_stop>
    24f6:	18 95       	reti

000024f8 <__subsf3>:
    24f8:	50 58       	subi	r21, 0x80	; 128

000024fa <__addsf3>:
    24fa:	bb 27       	eor	r27, r27
    24fc:	aa 27       	eor	r26, r26
    24fe:	0e 94 94 12 	call	0x2528	; 0x2528 <__addsf3x>
    2502:	0c 94 ca 13 	jmp	0x2794	; 0x2794 <__fp_round>
    2506:	0e 94 bc 13 	call	0x2778	; 0x2778 <__fp_pscA>
    250a:	38 f0       	brcs	.+14     	; 0x251a <__addsf3+0x20>
    250c:	0e 94 c3 13 	call	0x2786	; 0x2786 <__fp_pscB>
    2510:	20 f0       	brcs	.+8      	; 0x251a <__addsf3+0x20>
    2512:	39 f4       	brne	.+14     	; 0x2522 <__addsf3+0x28>
    2514:	9f 3f       	cpi	r25, 0xFF	; 255
    2516:	19 f4       	brne	.+6      	; 0x251e <__addsf3+0x24>
    2518:	26 f4       	brtc	.+8      	; 0x2522 <__addsf3+0x28>
    251a:	0c 94 b9 13 	jmp	0x2772	; 0x2772 <__fp_nan>
    251e:	0e f4       	brtc	.+2      	; 0x2522 <__addsf3+0x28>
    2520:	e0 95       	com	r30
    2522:	e7 fb       	bst	r30, 7
    2524:	0c 94 b3 13 	jmp	0x2766	; 0x2766 <__fp_inf>

00002528 <__addsf3x>:
    2528:	e9 2f       	mov	r30, r25
    252a:	0e 94 db 13 	call	0x27b6	; 0x27b6 <__fp_split3>
    252e:	58 f3       	brcs	.-42     	; 0x2506 <__addsf3+0xc>
    2530:	ba 17       	cp	r27, r26
    2532:	62 07       	cpc	r22, r18
    2534:	73 07       	cpc	r23, r19
    2536:	84 07       	cpc	r24, r20
    2538:	95 07       	cpc	r25, r21
    253a:	20 f0       	brcs	.+8      	; 0x2544 <__addsf3x+0x1c>
    253c:	79 f4       	brne	.+30     	; 0x255c <__addsf3x+0x34>
    253e:	a6 f5       	brtc	.+104    	; 0x25a8 <__addsf3x+0x80>
    2540:	0c 94 fd 13 	jmp	0x27fa	; 0x27fa <__fp_zero>
    2544:	0e f4       	brtc	.+2      	; 0x2548 <__addsf3x+0x20>
    2546:	e0 95       	com	r30
    2548:	0b 2e       	mov	r0, r27
    254a:	ba 2f       	mov	r27, r26
    254c:	a0 2d       	mov	r26, r0
    254e:	0b 01       	movw	r0, r22
    2550:	b9 01       	movw	r22, r18
    2552:	90 01       	movw	r18, r0
    2554:	0c 01       	movw	r0, r24
    2556:	ca 01       	movw	r24, r20
    2558:	a0 01       	movw	r20, r0
    255a:	11 24       	eor	r1, r1
    255c:	ff 27       	eor	r31, r31
    255e:	59 1b       	sub	r21, r25
    2560:	99 f0       	breq	.+38     	; 0x2588 <__addsf3x+0x60>
    2562:	59 3f       	cpi	r21, 0xF9	; 249
    2564:	50 f4       	brcc	.+20     	; 0x257a <__addsf3x+0x52>
    2566:	50 3e       	cpi	r21, 0xE0	; 224
    2568:	68 f1       	brcs	.+90     	; 0x25c4 <__addsf3x+0x9c>
    256a:	1a 16       	cp	r1, r26
    256c:	f0 40       	sbci	r31, 0x00	; 0
    256e:	a2 2f       	mov	r26, r18
    2570:	23 2f       	mov	r18, r19
    2572:	34 2f       	mov	r19, r20
    2574:	44 27       	eor	r20, r20
    2576:	58 5f       	subi	r21, 0xF8	; 248
    2578:	f3 cf       	rjmp	.-26     	; 0x2560 <__addsf3x+0x38>
    257a:	46 95       	lsr	r20
    257c:	37 95       	ror	r19
    257e:	27 95       	ror	r18
    2580:	a7 95       	ror	r26
    2582:	f0 40       	sbci	r31, 0x00	; 0
    2584:	53 95       	inc	r21
    2586:	c9 f7       	brne	.-14     	; 0x257a <__addsf3x+0x52>
    2588:	7e f4       	brtc	.+30     	; 0x25a8 <__addsf3x+0x80>
    258a:	1f 16       	cp	r1, r31
    258c:	ba 0b       	sbc	r27, r26
    258e:	62 0b       	sbc	r22, r18
    2590:	73 0b       	sbc	r23, r19
    2592:	84 0b       	sbc	r24, r20
    2594:	ba f0       	brmi	.+46     	; 0x25c4 <__addsf3x+0x9c>
    2596:	91 50       	subi	r25, 0x01	; 1
    2598:	a1 f0       	breq	.+40     	; 0x25c2 <__addsf3x+0x9a>
    259a:	ff 0f       	add	r31, r31
    259c:	bb 1f       	adc	r27, r27
    259e:	66 1f       	adc	r22, r22
    25a0:	77 1f       	adc	r23, r23
    25a2:	88 1f       	adc	r24, r24
    25a4:	c2 f7       	brpl	.-16     	; 0x2596 <__addsf3x+0x6e>
    25a6:	0e c0       	rjmp	.+28     	; 0x25c4 <__addsf3x+0x9c>
    25a8:	ba 0f       	add	r27, r26
    25aa:	62 1f       	adc	r22, r18
    25ac:	73 1f       	adc	r23, r19
    25ae:	84 1f       	adc	r24, r20
    25b0:	48 f4       	brcc	.+18     	; 0x25c4 <__addsf3x+0x9c>
    25b2:	87 95       	ror	r24
    25b4:	77 95       	ror	r23
    25b6:	67 95       	ror	r22
    25b8:	b7 95       	ror	r27
    25ba:	f7 95       	ror	r31
    25bc:	9e 3f       	cpi	r25, 0xFE	; 254
    25be:	08 f0       	brcs	.+2      	; 0x25c2 <__addsf3x+0x9a>
    25c0:	b0 cf       	rjmp	.-160    	; 0x2522 <__addsf3+0x28>
    25c2:	93 95       	inc	r25
    25c4:	88 0f       	add	r24, r24
    25c6:	08 f0       	brcs	.+2      	; 0x25ca <__addsf3x+0xa2>
    25c8:	99 27       	eor	r25, r25
    25ca:	ee 0f       	add	r30, r30
    25cc:	97 95       	ror	r25
    25ce:	87 95       	ror	r24
    25d0:	08 95       	ret

000025d2 <__cmpsf2>:
    25d2:	0e 94 8f 13 	call	0x271e	; 0x271e <__fp_cmp>
    25d6:	08 f4       	brcc	.+2      	; 0x25da <__cmpsf2+0x8>
    25d8:	81 e0       	ldi	r24, 0x01	; 1
    25da:	08 95       	ret

000025dc <__divsf3>:
    25dc:	0e 94 02 13 	call	0x2604	; 0x2604 <__divsf3x>
    25e0:	0c 94 ca 13 	jmp	0x2794	; 0x2794 <__fp_round>
    25e4:	0e 94 c3 13 	call	0x2786	; 0x2786 <__fp_pscB>
    25e8:	58 f0       	brcs	.+22     	; 0x2600 <__divsf3+0x24>
    25ea:	0e 94 bc 13 	call	0x2778	; 0x2778 <__fp_pscA>
    25ee:	40 f0       	brcs	.+16     	; 0x2600 <__divsf3+0x24>
    25f0:	29 f4       	brne	.+10     	; 0x25fc <__divsf3+0x20>
    25f2:	5f 3f       	cpi	r21, 0xFF	; 255
    25f4:	29 f0       	breq	.+10     	; 0x2600 <__divsf3+0x24>
    25f6:	0c 94 b3 13 	jmp	0x2766	; 0x2766 <__fp_inf>
    25fa:	51 11       	cpse	r21, r1
    25fc:	0c 94 fe 13 	jmp	0x27fc	; 0x27fc <__fp_szero>
    2600:	0c 94 b9 13 	jmp	0x2772	; 0x2772 <__fp_nan>

00002604 <__divsf3x>:
    2604:	0e 94 db 13 	call	0x27b6	; 0x27b6 <__fp_split3>
    2608:	68 f3       	brcs	.-38     	; 0x25e4 <__divsf3+0x8>

0000260a <__divsf3_pse>:
    260a:	99 23       	and	r25, r25
    260c:	b1 f3       	breq	.-20     	; 0x25fa <__divsf3+0x1e>
    260e:	55 23       	and	r21, r21
    2610:	91 f3       	breq	.-28     	; 0x25f6 <__divsf3+0x1a>
    2612:	95 1b       	sub	r25, r21
    2614:	55 0b       	sbc	r21, r21
    2616:	bb 27       	eor	r27, r27
    2618:	aa 27       	eor	r26, r26
    261a:	62 17       	cp	r22, r18
    261c:	73 07       	cpc	r23, r19
    261e:	84 07       	cpc	r24, r20
    2620:	38 f0       	brcs	.+14     	; 0x2630 <__divsf3_pse+0x26>
    2622:	9f 5f       	subi	r25, 0xFF	; 255
    2624:	5f 4f       	sbci	r21, 0xFF	; 255
    2626:	22 0f       	add	r18, r18
    2628:	33 1f       	adc	r19, r19
    262a:	44 1f       	adc	r20, r20
    262c:	aa 1f       	adc	r26, r26
    262e:	a9 f3       	breq	.-22     	; 0x261a <__divsf3_pse+0x10>
    2630:	35 d0       	rcall	.+106    	; 0x269c <__divsf3_pse+0x92>
    2632:	0e 2e       	mov	r0, r30
    2634:	3a f0       	brmi	.+14     	; 0x2644 <__divsf3_pse+0x3a>
    2636:	e0 e8       	ldi	r30, 0x80	; 128
    2638:	32 d0       	rcall	.+100    	; 0x269e <__divsf3_pse+0x94>
    263a:	91 50       	subi	r25, 0x01	; 1
    263c:	50 40       	sbci	r21, 0x00	; 0
    263e:	e6 95       	lsr	r30
    2640:	00 1c       	adc	r0, r0
    2642:	ca f7       	brpl	.-14     	; 0x2636 <__divsf3_pse+0x2c>
    2644:	2b d0       	rcall	.+86     	; 0x269c <__divsf3_pse+0x92>
    2646:	fe 2f       	mov	r31, r30
    2648:	29 d0       	rcall	.+82     	; 0x269c <__divsf3_pse+0x92>
    264a:	66 0f       	add	r22, r22
    264c:	77 1f       	adc	r23, r23
    264e:	88 1f       	adc	r24, r24
    2650:	bb 1f       	adc	r27, r27
    2652:	26 17       	cp	r18, r22
    2654:	37 07       	cpc	r19, r23
    2656:	48 07       	cpc	r20, r24
    2658:	ab 07       	cpc	r26, r27
    265a:	b0 e8       	ldi	r27, 0x80	; 128
    265c:	09 f0       	breq	.+2      	; 0x2660 <__divsf3_pse+0x56>
    265e:	bb 0b       	sbc	r27, r27
    2660:	80 2d       	mov	r24, r0
    2662:	bf 01       	movw	r22, r30
    2664:	ff 27       	eor	r31, r31
    2666:	93 58       	subi	r25, 0x83	; 131
    2668:	5f 4f       	sbci	r21, 0xFF	; 255
    266a:	3a f0       	brmi	.+14     	; 0x267a <__divsf3_pse+0x70>
    266c:	9e 3f       	cpi	r25, 0xFE	; 254
    266e:	51 05       	cpc	r21, r1
    2670:	78 f0       	brcs	.+30     	; 0x2690 <__divsf3_pse+0x86>
    2672:	0c 94 b3 13 	jmp	0x2766	; 0x2766 <__fp_inf>
    2676:	0c 94 fe 13 	jmp	0x27fc	; 0x27fc <__fp_szero>
    267a:	5f 3f       	cpi	r21, 0xFF	; 255
    267c:	e4 f3       	brlt	.-8      	; 0x2676 <__divsf3_pse+0x6c>
    267e:	98 3e       	cpi	r25, 0xE8	; 232
    2680:	d4 f3       	brlt	.-12     	; 0x2676 <__divsf3_pse+0x6c>
    2682:	86 95       	lsr	r24
    2684:	77 95       	ror	r23
    2686:	67 95       	ror	r22
    2688:	b7 95       	ror	r27
    268a:	f7 95       	ror	r31
    268c:	9f 5f       	subi	r25, 0xFF	; 255
    268e:	c9 f7       	brne	.-14     	; 0x2682 <__divsf3_pse+0x78>
    2690:	88 0f       	add	r24, r24
    2692:	91 1d       	adc	r25, r1
    2694:	96 95       	lsr	r25
    2696:	87 95       	ror	r24
    2698:	97 f9       	bld	r25, 7
    269a:	08 95       	ret
    269c:	e1 e0       	ldi	r30, 0x01	; 1
    269e:	66 0f       	add	r22, r22
    26a0:	77 1f       	adc	r23, r23
    26a2:	88 1f       	adc	r24, r24
    26a4:	bb 1f       	adc	r27, r27
    26a6:	62 17       	cp	r22, r18
    26a8:	73 07       	cpc	r23, r19
    26aa:	84 07       	cpc	r24, r20
    26ac:	ba 07       	cpc	r27, r26
    26ae:	20 f0       	brcs	.+8      	; 0x26b8 <__divsf3_pse+0xae>
    26b0:	62 1b       	sub	r22, r18
    26b2:	73 0b       	sbc	r23, r19
    26b4:	84 0b       	sbc	r24, r20
    26b6:	ba 0b       	sbc	r27, r26
    26b8:	ee 1f       	adc	r30, r30
    26ba:	88 f7       	brcc	.-30     	; 0x269e <__divsf3_pse+0x94>
    26bc:	e0 95       	com	r30
    26be:	08 95       	ret

000026c0 <__fixunssfsi>:
    26c0:	0e 94 e3 13 	call	0x27c6	; 0x27c6 <__fp_splitA>
    26c4:	88 f0       	brcs	.+34     	; 0x26e8 <__fixunssfsi+0x28>
    26c6:	9f 57       	subi	r25, 0x7F	; 127
    26c8:	98 f0       	brcs	.+38     	; 0x26f0 <__fixunssfsi+0x30>
    26ca:	b9 2f       	mov	r27, r25
    26cc:	99 27       	eor	r25, r25
    26ce:	b7 51       	subi	r27, 0x17	; 23
    26d0:	b0 f0       	brcs	.+44     	; 0x26fe <__fixunssfsi+0x3e>
    26d2:	e1 f0       	breq	.+56     	; 0x270c <__fixunssfsi+0x4c>
    26d4:	66 0f       	add	r22, r22
    26d6:	77 1f       	adc	r23, r23
    26d8:	88 1f       	adc	r24, r24
    26da:	99 1f       	adc	r25, r25
    26dc:	1a f0       	brmi	.+6      	; 0x26e4 <__fixunssfsi+0x24>
    26de:	ba 95       	dec	r27
    26e0:	c9 f7       	brne	.-14     	; 0x26d4 <__fixunssfsi+0x14>
    26e2:	14 c0       	rjmp	.+40     	; 0x270c <__fixunssfsi+0x4c>
    26e4:	b1 30       	cpi	r27, 0x01	; 1
    26e6:	91 f0       	breq	.+36     	; 0x270c <__fixunssfsi+0x4c>
    26e8:	0e 94 fd 13 	call	0x27fa	; 0x27fa <__fp_zero>
    26ec:	b1 e0       	ldi	r27, 0x01	; 1
    26ee:	08 95       	ret
    26f0:	0c 94 fd 13 	jmp	0x27fa	; 0x27fa <__fp_zero>
    26f4:	67 2f       	mov	r22, r23
    26f6:	78 2f       	mov	r23, r24
    26f8:	88 27       	eor	r24, r24
    26fa:	b8 5f       	subi	r27, 0xF8	; 248
    26fc:	39 f0       	breq	.+14     	; 0x270c <__fixunssfsi+0x4c>
    26fe:	b9 3f       	cpi	r27, 0xF9	; 249
    2700:	cc f3       	brlt	.-14     	; 0x26f4 <__fixunssfsi+0x34>
    2702:	86 95       	lsr	r24
    2704:	77 95       	ror	r23
    2706:	67 95       	ror	r22
    2708:	b3 95       	inc	r27
    270a:	d9 f7       	brne	.-10     	; 0x2702 <__fixunssfsi+0x42>
    270c:	3e f4       	brtc	.+14     	; 0x271c <__fixunssfsi+0x5c>
    270e:	90 95       	com	r25
    2710:	80 95       	com	r24
    2712:	70 95       	com	r23
    2714:	61 95       	neg	r22
    2716:	7f 4f       	sbci	r23, 0xFF	; 255
    2718:	8f 4f       	sbci	r24, 0xFF	; 255
    271a:	9f 4f       	sbci	r25, 0xFF	; 255
    271c:	08 95       	ret

0000271e <__fp_cmp>:
    271e:	99 0f       	add	r25, r25
    2720:	00 08       	sbc	r0, r0
    2722:	55 0f       	add	r21, r21
    2724:	aa 0b       	sbc	r26, r26
    2726:	e0 e8       	ldi	r30, 0x80	; 128
    2728:	fe ef       	ldi	r31, 0xFE	; 254
    272a:	16 16       	cp	r1, r22
    272c:	17 06       	cpc	r1, r23
    272e:	e8 07       	cpc	r30, r24
    2730:	f9 07       	cpc	r31, r25
    2732:	c0 f0       	brcs	.+48     	; 0x2764 <__fp_cmp+0x46>
    2734:	12 16       	cp	r1, r18
    2736:	13 06       	cpc	r1, r19
    2738:	e4 07       	cpc	r30, r20
    273a:	f5 07       	cpc	r31, r21
    273c:	98 f0       	brcs	.+38     	; 0x2764 <__fp_cmp+0x46>
    273e:	62 1b       	sub	r22, r18
    2740:	73 0b       	sbc	r23, r19
    2742:	84 0b       	sbc	r24, r20
    2744:	95 0b       	sbc	r25, r21
    2746:	39 f4       	brne	.+14     	; 0x2756 <__fp_cmp+0x38>
    2748:	0a 26       	eor	r0, r26
    274a:	61 f0       	breq	.+24     	; 0x2764 <__fp_cmp+0x46>
    274c:	23 2b       	or	r18, r19
    274e:	24 2b       	or	r18, r20
    2750:	25 2b       	or	r18, r21
    2752:	21 f4       	brne	.+8      	; 0x275c <__fp_cmp+0x3e>
    2754:	08 95       	ret
    2756:	0a 26       	eor	r0, r26
    2758:	09 f4       	brne	.+2      	; 0x275c <__fp_cmp+0x3e>
    275a:	a1 40       	sbci	r26, 0x01	; 1
    275c:	a6 95       	lsr	r26
    275e:	8f ef       	ldi	r24, 0xFF	; 255
    2760:	81 1d       	adc	r24, r1
    2762:	81 1d       	adc	r24, r1
    2764:	08 95       	ret

00002766 <__fp_inf>:
    2766:	97 f9       	bld	r25, 7
    2768:	9f 67       	ori	r25, 0x7F	; 127
    276a:	80 e8       	ldi	r24, 0x80	; 128
    276c:	70 e0       	ldi	r23, 0x00	; 0
    276e:	60 e0       	ldi	r22, 0x00	; 0
    2770:	08 95       	ret

00002772 <__fp_nan>:
    2772:	9f ef       	ldi	r25, 0xFF	; 255
    2774:	80 ec       	ldi	r24, 0xC0	; 192
    2776:	08 95       	ret

00002778 <__fp_pscA>:
    2778:	00 24       	eor	r0, r0
    277a:	0a 94       	dec	r0
    277c:	16 16       	cp	r1, r22
    277e:	17 06       	cpc	r1, r23
    2780:	18 06       	cpc	r1, r24
    2782:	09 06       	cpc	r0, r25
    2784:	08 95       	ret

00002786 <__fp_pscB>:
    2786:	00 24       	eor	r0, r0
    2788:	0a 94       	dec	r0
    278a:	12 16       	cp	r1, r18
    278c:	13 06       	cpc	r1, r19
    278e:	14 06       	cpc	r1, r20
    2790:	05 06       	cpc	r0, r21
    2792:	08 95       	ret

00002794 <__fp_round>:
    2794:	09 2e       	mov	r0, r25
    2796:	03 94       	inc	r0
    2798:	00 0c       	add	r0, r0
    279a:	11 f4       	brne	.+4      	; 0x27a0 <__fp_round+0xc>
    279c:	88 23       	and	r24, r24
    279e:	52 f0       	brmi	.+20     	; 0x27b4 <__fp_round+0x20>
    27a0:	bb 0f       	add	r27, r27
    27a2:	40 f4       	brcc	.+16     	; 0x27b4 <__fp_round+0x20>
    27a4:	bf 2b       	or	r27, r31
    27a6:	11 f4       	brne	.+4      	; 0x27ac <__fp_round+0x18>
    27a8:	60 ff       	sbrs	r22, 0
    27aa:	04 c0       	rjmp	.+8      	; 0x27b4 <__fp_round+0x20>
    27ac:	6f 5f       	subi	r22, 0xFF	; 255
    27ae:	7f 4f       	sbci	r23, 0xFF	; 255
    27b0:	8f 4f       	sbci	r24, 0xFF	; 255
    27b2:	9f 4f       	sbci	r25, 0xFF	; 255
    27b4:	08 95       	ret

000027b6 <__fp_split3>:
    27b6:	57 fd       	sbrc	r21, 7
    27b8:	90 58       	subi	r25, 0x80	; 128
    27ba:	44 0f       	add	r20, r20
    27bc:	55 1f       	adc	r21, r21
    27be:	59 f0       	breq	.+22     	; 0x27d6 <__fp_splitA+0x10>
    27c0:	5f 3f       	cpi	r21, 0xFF	; 255
    27c2:	71 f0       	breq	.+28     	; 0x27e0 <__fp_splitA+0x1a>
    27c4:	47 95       	ror	r20

000027c6 <__fp_splitA>:
    27c6:	88 0f       	add	r24, r24
    27c8:	97 fb       	bst	r25, 7
    27ca:	99 1f       	adc	r25, r25
    27cc:	61 f0       	breq	.+24     	; 0x27e6 <__fp_splitA+0x20>
    27ce:	9f 3f       	cpi	r25, 0xFF	; 255
    27d0:	79 f0       	breq	.+30     	; 0x27f0 <__fp_splitA+0x2a>
    27d2:	87 95       	ror	r24
    27d4:	08 95       	ret
    27d6:	12 16       	cp	r1, r18
    27d8:	13 06       	cpc	r1, r19
    27da:	14 06       	cpc	r1, r20
    27dc:	55 1f       	adc	r21, r21
    27de:	f2 cf       	rjmp	.-28     	; 0x27c4 <__fp_split3+0xe>
    27e0:	46 95       	lsr	r20
    27e2:	f1 df       	rcall	.-30     	; 0x27c6 <__fp_splitA>
    27e4:	08 c0       	rjmp	.+16     	; 0x27f6 <__fp_splitA+0x30>
    27e6:	16 16       	cp	r1, r22
    27e8:	17 06       	cpc	r1, r23
    27ea:	18 06       	cpc	r1, r24
    27ec:	99 1f       	adc	r25, r25
    27ee:	f1 cf       	rjmp	.-30     	; 0x27d2 <__fp_splitA+0xc>
    27f0:	86 95       	lsr	r24
    27f2:	71 05       	cpc	r23, r1
    27f4:	61 05       	cpc	r22, r1
    27f6:	08 94       	sec
    27f8:	08 95       	ret

000027fa <__fp_zero>:
    27fa:	e8 94       	clt

000027fc <__fp_szero>:
    27fc:	bb 27       	eor	r27, r27
    27fe:	66 27       	eor	r22, r22
    2800:	77 27       	eor	r23, r23
    2802:	cb 01       	movw	r24, r22
    2804:	97 f9       	bld	r25, 7
    2806:	08 95       	ret

00002808 <__udivmodhi4>:
    2808:	aa 1b       	sub	r26, r26
    280a:	bb 1b       	sub	r27, r27
    280c:	51 e1       	ldi	r21, 0x11	; 17
    280e:	07 c0       	rjmp	.+14     	; 0x281e <__udivmodhi4_ep>

00002810 <__udivmodhi4_loop>:
    2810:	aa 1f       	adc	r26, r26
    2812:	bb 1f       	adc	r27, r27
    2814:	a6 17       	cp	r26, r22
    2816:	b7 07       	cpc	r27, r23
    2818:	10 f0       	brcs	.+4      	; 0x281e <__udivmodhi4_ep>
    281a:	a6 1b       	sub	r26, r22
    281c:	b7 0b       	sbc	r27, r23

0000281e <__udivmodhi4_ep>:
    281e:	88 1f       	adc	r24, r24
    2820:	99 1f       	adc	r25, r25
    2822:	5a 95       	dec	r21
    2824:	a9 f7       	brne	.-22     	; 0x2810 <__udivmodhi4_loop>
    2826:	80 95       	com	r24
    2828:	90 95       	com	r25
    282a:	bc 01       	movw	r22, r24
    282c:	cd 01       	movw	r24, r26
    282e:	08 95       	ret

00002830 <__adddi3_s8>:
    2830:	00 24       	eor	r0, r0
    2832:	a7 fd       	sbrc	r26, 7
    2834:	00 94       	com	r0
    2836:	2a 0f       	add	r18, r26
    2838:	30 1d       	adc	r19, r0
    283a:	40 1d       	adc	r20, r0
    283c:	50 1d       	adc	r21, r0
    283e:	60 1d       	adc	r22, r0
    2840:	70 1d       	adc	r23, r0
    2842:	80 1d       	adc	r24, r0
    2844:	90 1d       	adc	r25, r0
    2846:	08 95       	ret

00002848 <__cmpdi2>:
    2848:	2a 15       	cp	r18, r10
    284a:	3b 05       	cpc	r19, r11
    284c:	4c 05       	cpc	r20, r12
    284e:	5d 05       	cpc	r21, r13
    2850:	6e 05       	cpc	r22, r14
    2852:	7f 05       	cpc	r23, r15
    2854:	80 07       	cpc	r24, r16
    2856:	91 07       	cpc	r25, r17
    2858:	08 95       	ret

0000285a <__cmpdi2_s8>:
    285a:	00 24       	eor	r0, r0
    285c:	a7 fd       	sbrc	r26, 7
    285e:	00 94       	com	r0
    2860:	2a 17       	cp	r18, r26
    2862:	30 05       	cpc	r19, r0
    2864:	40 05       	cpc	r20, r0
    2866:	50 05       	cpc	r21, r0
    2868:	60 05       	cpc	r22, r0
    286a:	70 05       	cpc	r23, r0
    286c:	80 05       	cpc	r24, r0
    286e:	90 05       	cpc	r25, r0
    2870:	08 95       	ret

00002872 <memcpy>:
    2872:	fb 01       	movw	r30, r22
    2874:	dc 01       	movw	r26, r24
    2876:	02 c0       	rjmp	.+4      	; 0x287c <memcpy+0xa>
    2878:	01 90       	ld	r0, Z+
    287a:	0d 92       	st	X+, r0
    287c:	41 50       	subi	r20, 0x01	; 1
    287e:	50 40       	sbci	r21, 0x00	; 0
    2880:	d8 f7       	brcc	.-10     	; 0x2878 <memcpy+0x6>
    2882:	08 95       	ret

00002884 <_exit>:
    2884:	f8 94       	cli

00002886 <__stop_program>:
    2886:	ff cf       	rjmp	.-2      	; 0x2886 <__stop_program>
